
SAME70.elf:     file format elf32-littlearm

Sections:
Idx Name          Size      VMA       LMA       File off  Algn
  0 .text         00001764  00400000  00400000  00010000  2**3
                  CONTENTS, ALLOC, LOAD, READONLY, CODE
  1 .ARM.exidx    00000008  00401764  00401764  00011764  2**2
                  CONTENTS, ALLOC, LOAD, READONLY, DATA
  2 .relocate     00000554  20400000  0040176c  00020000  2**3
                  CONTENTS, ALLOC, LOAD, CODE
  3 .bss          000000b0  20400554  00401cc0  00020554  2**2
                  ALLOC
  4 .stack        00002004  20400604  00401d70  00020554  2**0
                  ALLOC
  5 .heap         00000200  20402608  00403d74  00020554  2**0
                  ALLOC
  6 .ARM.attributes 0000002e  00000000  00000000  00020554  2**0
                  CONTENTS, READONLY
  7 .comment      00000059  00000000  00000000  00020582  2**0
                  CONTENTS, READONLY
  8 .debug_info   0000b051  00000000  00000000  000205db  2**0
                  CONTENTS, READONLY, DEBUGGING
  9 .debug_abbrev 00001851  00000000  00000000  0002b62c  2**0
                  CONTENTS, READONLY, DEBUGGING
 10 .debug_loc    00002472  00000000  00000000  0002ce7d  2**0
                  CONTENTS, READONLY, DEBUGGING
 11 .debug_aranges 00000560  00000000  00000000  0002f2ef  2**0
                  CONTENTS, READONLY, DEBUGGING
 12 .debug_ranges 00000628  00000000  00000000  0002f84f  2**0
                  CONTENTS, READONLY, DEBUGGING
 13 .debug_macro  0001c1ef  00000000  00000000  0002fe77  2**0
                  CONTENTS, READONLY, DEBUGGING
 14 .debug_line   000068bd  00000000  00000000  0004c066  2**0
                  CONTENTS, READONLY, DEBUGGING
 15 .debug_str    000893c1  00000000  00000000  00052923  2**0
                  CONTENTS, READONLY, DEBUGGING
 16 .debug_frame  00000f20  00000000  00000000  000dbce4  2**2
                  CONTENTS, READONLY, DEBUGGING

Disassembly of section .text:

00400000 <exception_table>:
  400000:	08 26 40 20 dd 04 40 00 d9 04 40 00 d9 04 40 00     .&@ ..@...@...@.
  400010:	d9 04 40 00 d9 04 40 00 d9 04 40 00 00 00 00 00     ..@...@...@.....
	...
  40002c:	d9 04 40 00 d9 04 40 00 00 00 00 00 d9 04 40 00     ..@...@.......@.
  40003c:	d9 04 40 00 d9 04 40 00 d9 04 40 00 d9 04 40 00     ..@...@...@...@.
  40004c:	d9 04 40 00 d9 04 40 00 d9 04 40 00 d9 04 40 00     ..@...@...@...@.
  40005c:	d9 04 40 00 d9 04 40 00 00 00 00 00 01 03 40 00     ..@...@.......@.
  40006c:	15 03 40 00 29 03 40 00 d9 04 40 00 d9 04 40 00     ..@.).@...@...@.
  40007c:	d9 04 40 00 3d 03 40 00 51 03 40 00 d9 04 40 00     ..@.=.@.Q.@...@.
  40008c:	d9 04 40 00 d9 04 40 00 d9 04 40 00 d9 04 40 00     ..@...@...@...@.
  40009c:	d9 04 40 00 d9 04 40 00 d9 04 40 00 d9 04 40 00     ..@...@...@...@.
  4000ac:	d9 04 40 00 d9 04 40 00 d9 04 40 00 d9 04 40 00     ..@...@...@...@.
  4000bc:	d9 04 40 00 d9 04 40 00 d9 04 40 00 d9 04 40 00     ..@...@...@...@.
  4000cc:	d9 04 40 00 00 00 00 00 d9 04 40 00 00 00 00 00     ..@.......@.....
  4000dc:	d9 04 40 00 d9 04 40 00 d9 04 40 00 d9 04 40 00     ..@...@...@...@.
  4000ec:	d9 04 40 00 d9 04 40 00 d9 04 40 00 d9 04 40 00     ..@...@...@...@.
  4000fc:	d9 04 40 00 d9 04 40 00 d9 04 40 00 d9 04 40 00     ..@...@...@...@.
  40010c:	d9 04 40 00 d9 04 40 00 00 00 00 00 00 00 00 00     ..@...@.........
  40011c:	00 00 00 00 d9 04 40 00 d9 04 40 00 d9 04 40 00     ......@...@...@.
  40012c:	d9 04 40 00 d9 04 40 00 00 00 00 00 d9 04 40 00     ..@...@.......@.
  40013c:	d9 04 40 00                                         ..@.

00400140 <__do_global_dtors_aux>:
  400140:	b510      	push	{r4, lr}
  400142:	4c05      	ldr	r4, [pc, #20]	; (400158 <__do_global_dtors_aux+0x18>)
  400144:	7823      	ldrb	r3, [r4, #0]
  400146:	b933      	cbnz	r3, 400156 <__do_global_dtors_aux+0x16>
  400148:	4b04      	ldr	r3, [pc, #16]	; (40015c <__do_global_dtors_aux+0x1c>)
  40014a:	b113      	cbz	r3, 400152 <__do_global_dtors_aux+0x12>
  40014c:	4804      	ldr	r0, [pc, #16]	; (400160 <__do_global_dtors_aux+0x20>)
  40014e:	f3af 8000 	nop.w
  400152:	2301      	movs	r3, #1
  400154:	7023      	strb	r3, [r4, #0]
  400156:	bd10      	pop	{r4, pc}
  400158:	20400554 	.word	0x20400554
  40015c:	00000000 	.word	0x00000000
  400160:	0040176c 	.word	0x0040176c

00400164 <frame_dummy>:
  400164:	4b0c      	ldr	r3, [pc, #48]	; (400198 <frame_dummy+0x34>)
  400166:	b143      	cbz	r3, 40017a <frame_dummy+0x16>
  400168:	480c      	ldr	r0, [pc, #48]	; (40019c <frame_dummy+0x38>)
  40016a:	490d      	ldr	r1, [pc, #52]	; (4001a0 <frame_dummy+0x3c>)
  40016c:	b510      	push	{r4, lr}
  40016e:	f3af 8000 	nop.w
  400172:	480c      	ldr	r0, [pc, #48]	; (4001a4 <frame_dummy+0x40>)
  400174:	6803      	ldr	r3, [r0, #0]
  400176:	b923      	cbnz	r3, 400182 <frame_dummy+0x1e>
  400178:	bd10      	pop	{r4, pc}
  40017a:	480a      	ldr	r0, [pc, #40]	; (4001a4 <frame_dummy+0x40>)
  40017c:	6803      	ldr	r3, [r0, #0]
  40017e:	b933      	cbnz	r3, 40018e <frame_dummy+0x2a>
  400180:	4770      	bx	lr
  400182:	4b09      	ldr	r3, [pc, #36]	; (4001a8 <frame_dummy+0x44>)
  400184:	2b00      	cmp	r3, #0
  400186:	d0f7      	beq.n	400178 <frame_dummy+0x14>
  400188:	e8bd 4010 	ldmia.w	sp!, {r4, lr}
  40018c:	4718      	bx	r3
  40018e:	4b06      	ldr	r3, [pc, #24]	; (4001a8 <frame_dummy+0x44>)
  400190:	2b00      	cmp	r3, #0
  400192:	d0f5      	beq.n	400180 <frame_dummy+0x1c>
  400194:	4718      	bx	r3
  400196:	bf00      	nop
  400198:	00000000 	.word	0x00000000
  40019c:	0040176c 	.word	0x0040176c
  4001a0:	20400558 	.word	0x20400558
  4001a4:	0040176c 	.word	0x0040176c
  4001a8:	00000000 	.word	0x00000000

004001ac <sysclk_init>:
  4001ac:	b510      	push	{r4, lr}
  4001ae:	4810      	ldr	r0, [pc, #64]	; (4001f0 <sysclk_init+0x44>)
  4001b0:	4b10      	ldr	r3, [pc, #64]	; (4001f4 <sysclk_init+0x48>)
  4001b2:	4798      	blx	r3
  4001b4:	213e      	movs	r1, #62	; 0x3e
  4001b6:	2000      	movs	r0, #0
  4001b8:	4b0f      	ldr	r3, [pc, #60]	; (4001f8 <sysclk_init+0x4c>)
  4001ba:	4798      	blx	r3
  4001bc:	4c0f      	ldr	r4, [pc, #60]	; (4001fc <sysclk_init+0x50>)
  4001be:	47a0      	blx	r4
  4001c0:	2800      	cmp	r0, #0
  4001c2:	d0fc      	beq.n	4001be <sysclk_init+0x12>
  4001c4:	4b0e      	ldr	r3, [pc, #56]	; (400200 <sysclk_init+0x54>)
  4001c6:	4798      	blx	r3
  4001c8:	4a0e      	ldr	r2, [pc, #56]	; (400204 <sysclk_init+0x58>)
  4001ca:	4b0f      	ldr	r3, [pc, #60]	; (400208 <sysclk_init+0x5c>)
  4001cc:	629a      	str	r2, [r3, #40]	; 0x28
  4001ce:	4c0f      	ldr	r4, [pc, #60]	; (40020c <sysclk_init+0x60>)
  4001d0:	47a0      	blx	r4
  4001d2:	2800      	cmp	r0, #0
  4001d4:	d0fc      	beq.n	4001d0 <sysclk_init+0x24>
  4001d6:	2002      	movs	r0, #2
  4001d8:	4b0d      	ldr	r3, [pc, #52]	; (400210 <sysclk_init+0x64>)
  4001da:	4798      	blx	r3
  4001dc:	2000      	movs	r0, #0
  4001de:	4b0d      	ldr	r3, [pc, #52]	; (400214 <sysclk_init+0x68>)
  4001e0:	4798      	blx	r3
  4001e2:	4b0d      	ldr	r3, [pc, #52]	; (400218 <sysclk_init+0x6c>)
  4001e4:	4798      	blx	r3
  4001e6:	4802      	ldr	r0, [pc, #8]	; (4001f0 <sysclk_init+0x44>)
  4001e8:	4b02      	ldr	r3, [pc, #8]	; (4001f4 <sysclk_init+0x48>)
  4001ea:	4798      	blx	r3
  4001ec:	bd10      	pop	{r4, pc}
  4001ee:	bf00      	nop
  4001f0:	11e1a300 	.word	0x11e1a300
  4001f4:	004006b1 	.word	0x004006b1
  4001f8:	00400401 	.word	0x00400401
  4001fc:	00400455 	.word	0x00400455
  400200:	00400465 	.word	0x00400465
  400204:	20183f01 	.word	0x20183f01
  400208:	400e0600 	.word	0x400e0600
  40020c:	00400475 	.word	0x00400475
  400210:	00400365 	.word	0x00400365
  400214:	0040039d 	.word	0x0040039d
  400218:	004005a5 	.word	0x004005a5

0040021c <pio_pull_up>:
  40021c:	b90a      	cbnz	r2, 400222 <pio_pull_up+0x6>
  40021e:	6601      	str	r1, [r0, #96]	; 0x60
  400220:	4770      	bx	lr
  400222:	6641      	str	r1, [r0, #100]	; 0x64
  400224:	4770      	bx	lr

00400226 <pio_set>:
  400226:	6301      	str	r1, [r0, #48]	; 0x30
  400228:	4770      	bx	lr

0040022a <pio_clear>:
  40022a:	6341      	str	r1, [r0, #52]	; 0x34
  40022c:	4770      	bx	lr

0040022e <pio_get>:
  40022e:	f021 6100 	bic.w	r1, r1, #134217728	; 0x8000000
  400232:	f1b1 5f40 	cmp.w	r1, #805306368	; 0x30000000
  400236:	d105      	bne.n	400244 <pio_get+0x16>
  400238:	6b83      	ldr	r3, [r0, #56]	; 0x38
  40023a:	4213      	tst	r3, r2
  40023c:	bf14      	ite	ne
  40023e:	2001      	movne	r0, #1
  400240:	2000      	moveq	r0, #0
  400242:	4770      	bx	lr
  400244:	6bc3      	ldr	r3, [r0, #60]	; 0x3c
  400246:	e7f8      	b.n	40023a <pio_get+0xc>

00400248 <pio_set_input>:
  400248:	6441      	str	r1, [r0, #68]	; 0x44
  40024a:	f012 0f01 	tst.w	r2, #1
  40024e:	d10d      	bne.n	40026c <pio_set_input+0x24>
  400250:	6601      	str	r1, [r0, #96]	; 0x60
  400252:	f012 0f0a 	tst.w	r2, #10
  400256:	d00b      	beq.n	400270 <pio_set_input+0x28>
  400258:	6201      	str	r1, [r0, #32]
  40025a:	f012 0f02 	tst.w	r2, #2
  40025e:	d109      	bne.n	400274 <pio_set_input+0x2c>
  400260:	f012 0f08 	tst.w	r2, #8
  400264:	d008      	beq.n	400278 <pio_set_input+0x30>
  400266:	f8c0 1084 	str.w	r1, [r0, #132]	; 0x84
  40026a:	e005      	b.n	400278 <pio_set_input+0x30>
  40026c:	6641      	str	r1, [r0, #100]	; 0x64
  40026e:	e7f0      	b.n	400252 <pio_set_input+0xa>
  400270:	6241      	str	r1, [r0, #36]	; 0x24
  400272:	e7f2      	b.n	40025a <pio_set_input+0x12>
  400274:	f8c0 1080 	str.w	r1, [r0, #128]	; 0x80
  400278:	6141      	str	r1, [r0, #20]
  40027a:	6001      	str	r1, [r0, #0]
  40027c:	4770      	bx	lr

0040027e <pio_set_output>:
  40027e:	b410      	push	{r4}
  400280:	9c01      	ldr	r4, [sp, #4]
  400282:	6441      	str	r1, [r0, #68]	; 0x44
  400284:	b94c      	cbnz	r4, 40029a <pio_set_output+0x1c>
  400286:	6601      	str	r1, [r0, #96]	; 0x60
  400288:	b14b      	cbz	r3, 40029e <pio_set_output+0x20>
  40028a:	6501      	str	r1, [r0, #80]	; 0x50
  40028c:	b94a      	cbnz	r2, 4002a2 <pio_set_output+0x24>
  40028e:	6341      	str	r1, [r0, #52]	; 0x34
  400290:	6101      	str	r1, [r0, #16]
  400292:	6001      	str	r1, [r0, #0]
  400294:	f85d 4b04 	ldr.w	r4, [sp], #4
  400298:	4770      	bx	lr
  40029a:	6641      	str	r1, [r0, #100]	; 0x64
  40029c:	e7f4      	b.n	400288 <pio_set_output+0xa>
  40029e:	6541      	str	r1, [r0, #84]	; 0x54
  4002a0:	e7f4      	b.n	40028c <pio_set_output+0xe>
  4002a2:	6301      	str	r1, [r0, #48]	; 0x30
  4002a4:	e7f4      	b.n	400290 <pio_set_output+0x12>

004002a6 <pio_get_interrupt_status>:
  4002a6:	6cc0      	ldr	r0, [r0, #76]	; 0x4c
  4002a8:	4770      	bx	lr

004002aa <pio_get_interrupt_mask>:
  4002aa:	6c80      	ldr	r0, [r0, #72]	; 0x48
  4002ac:	4770      	bx	lr
	...

004002b0 <pio_handler_process>:
  4002b0:	e92d 41f0 	stmdb	sp!, {r4, r5, r6, r7, r8, lr}
  4002b4:	4604      	mov	r4, r0
  4002b6:	4688      	mov	r8, r1
  4002b8:	4b0e      	ldr	r3, [pc, #56]	; (4002f4 <pio_handler_process+0x44>)
  4002ba:	4798      	blx	r3
  4002bc:	4605      	mov	r5, r0
  4002be:	4620      	mov	r0, r4
  4002c0:	4b0d      	ldr	r3, [pc, #52]	; (4002f8 <pio_handler_process+0x48>)
  4002c2:	4798      	blx	r3
  4002c4:	4005      	ands	r5, r0
  4002c6:	d013      	beq.n	4002f0 <pio_handler_process+0x40>
  4002c8:	4c0c      	ldr	r4, [pc, #48]	; (4002fc <pio_handler_process+0x4c>)
  4002ca:	f104 0660 	add.w	r6, r4, #96	; 0x60
  4002ce:	e003      	b.n	4002d8 <pio_handler_process+0x28>
  4002d0:	42b4      	cmp	r4, r6
  4002d2:	d00d      	beq.n	4002f0 <pio_handler_process+0x40>
  4002d4:	3410      	adds	r4, #16
  4002d6:	b15d      	cbz	r5, 4002f0 <pio_handler_process+0x40>
  4002d8:	6820      	ldr	r0, [r4, #0]
  4002da:	4540      	cmp	r0, r8
  4002dc:	d1f8      	bne.n	4002d0 <pio_handler_process+0x20>
  4002de:	6861      	ldr	r1, [r4, #4]
  4002e0:	4229      	tst	r1, r5
  4002e2:	d0f5      	beq.n	4002d0 <pio_handler_process+0x20>
  4002e4:	68e3      	ldr	r3, [r4, #12]
  4002e6:	4798      	blx	r3
  4002e8:	6863      	ldr	r3, [r4, #4]
  4002ea:	ea25 0503 	bic.w	r5, r5, r3
  4002ee:	e7ef      	b.n	4002d0 <pio_handler_process+0x20>
  4002f0:	e8bd 81f0 	ldmia.w	sp!, {r4, r5, r6, r7, r8, pc}
  4002f4:	004002a7 	.word	0x004002a7
  4002f8:	004002ab 	.word	0x004002ab
  4002fc:	20400570 	.word	0x20400570

00400300 <PIOA_Handler>:
  400300:	b508      	push	{r3, lr}
  400302:	210a      	movs	r1, #10
  400304:	4801      	ldr	r0, [pc, #4]	; (40030c <PIOA_Handler+0xc>)
  400306:	4b02      	ldr	r3, [pc, #8]	; (400310 <PIOA_Handler+0x10>)
  400308:	4798      	blx	r3
  40030a:	bd08      	pop	{r3, pc}
  40030c:	400e0e00 	.word	0x400e0e00
  400310:	004002b1 	.word	0x004002b1

00400314 <PIOB_Handler>:
  400314:	b508      	push	{r3, lr}
  400316:	210b      	movs	r1, #11
  400318:	4801      	ldr	r0, [pc, #4]	; (400320 <PIOB_Handler+0xc>)
  40031a:	4b02      	ldr	r3, [pc, #8]	; (400324 <PIOB_Handler+0x10>)
  40031c:	4798      	blx	r3
  40031e:	bd08      	pop	{r3, pc}
  400320:	400e1000 	.word	0x400e1000
  400324:	004002b1 	.word	0x004002b1

00400328 <PIOC_Handler>:
  400328:	b508      	push	{r3, lr}
  40032a:	210c      	movs	r1, #12
  40032c:	4801      	ldr	r0, [pc, #4]	; (400334 <PIOC_Handler+0xc>)
  40032e:	4b02      	ldr	r3, [pc, #8]	; (400338 <PIOC_Handler+0x10>)
  400330:	4798      	blx	r3
  400332:	bd08      	pop	{r3, pc}
  400334:	400e1200 	.word	0x400e1200
  400338:	004002b1 	.word	0x004002b1

0040033c <PIOD_Handler>:
  40033c:	b508      	push	{r3, lr}
  40033e:	2110      	movs	r1, #16
  400340:	4801      	ldr	r0, [pc, #4]	; (400348 <PIOD_Handler+0xc>)
  400342:	4b02      	ldr	r3, [pc, #8]	; (40034c <PIOD_Handler+0x10>)
  400344:	4798      	blx	r3
  400346:	bd08      	pop	{r3, pc}
  400348:	400e1400 	.word	0x400e1400
  40034c:	004002b1 	.word	0x004002b1

00400350 <PIOE_Handler>:
  400350:	b508      	push	{r3, lr}
  400352:	2111      	movs	r1, #17
  400354:	4801      	ldr	r0, [pc, #4]	; (40035c <PIOE_Handler+0xc>)
  400356:	4b02      	ldr	r3, [pc, #8]	; (400360 <PIOE_Handler+0x10>)
  400358:	4798      	blx	r3
  40035a:	bd08      	pop	{r3, pc}
  40035c:	400e1600 	.word	0x400e1600
  400360:	004002b1 	.word	0x004002b1

00400364 <pmc_mck_set_division>:
  400364:	2803      	cmp	r0, #3
  400366:	d011      	beq.n	40038c <pmc_mck_set_division+0x28>
  400368:	2804      	cmp	r0, #4
  40036a:	d012      	beq.n	400392 <pmc_mck_set_division+0x2e>
  40036c:	2802      	cmp	r0, #2
  40036e:	bf0c      	ite	eq
  400370:	f44f 7180 	moveq.w	r1, #256	; 0x100
  400374:	2100      	movne	r1, #0
  400376:	4a08      	ldr	r2, [pc, #32]	; (400398 <pmc_mck_set_division+0x34>)
  400378:	6b13      	ldr	r3, [r2, #48]	; 0x30
  40037a:	f423 7340 	bic.w	r3, r3, #768	; 0x300
  40037e:	430b      	orrs	r3, r1
  400380:	6313      	str	r3, [r2, #48]	; 0x30
  400382:	6e93      	ldr	r3, [r2, #104]	; 0x68
  400384:	f013 0f08 	tst.w	r3, #8
  400388:	d0fb      	beq.n	400382 <pmc_mck_set_division+0x1e>
  40038a:	4770      	bx	lr
  40038c:	f44f 7140 	mov.w	r1, #768	; 0x300
  400390:	e7f1      	b.n	400376 <pmc_mck_set_division+0x12>
  400392:	f44f 7100 	mov.w	r1, #512	; 0x200
  400396:	e7ee      	b.n	400376 <pmc_mck_set_division+0x12>
  400398:	400e0600 	.word	0x400e0600

0040039c <pmc_switch_mck_to_pllack>:
  40039c:	4a17      	ldr	r2, [pc, #92]	; (4003fc <pmc_switch_mck_to_pllack+0x60>)
  40039e:	6b13      	ldr	r3, [r2, #48]	; 0x30
  4003a0:	f023 0370 	bic.w	r3, r3, #112	; 0x70
  4003a4:	4318      	orrs	r0, r3
  4003a6:	6310      	str	r0, [r2, #48]	; 0x30
  4003a8:	6e93      	ldr	r3, [r2, #104]	; 0x68
  4003aa:	f013 0f08 	tst.w	r3, #8
  4003ae:	d10a      	bne.n	4003c6 <pmc_switch_mck_to_pllack+0x2a>
  4003b0:	f44f 5380 	mov.w	r3, #4096	; 0x1000
  4003b4:	4911      	ldr	r1, [pc, #68]	; (4003fc <pmc_switch_mck_to_pllack+0x60>)
  4003b6:	6e8a      	ldr	r2, [r1, #104]	; 0x68
  4003b8:	f012 0f08 	tst.w	r2, #8
  4003bc:	d103      	bne.n	4003c6 <pmc_switch_mck_to_pllack+0x2a>
  4003be:	3b01      	subs	r3, #1
  4003c0:	d1f9      	bne.n	4003b6 <pmc_switch_mck_to_pllack+0x1a>
  4003c2:	2001      	movs	r0, #1
  4003c4:	4770      	bx	lr
  4003c6:	4a0d      	ldr	r2, [pc, #52]	; (4003fc <pmc_switch_mck_to_pllack+0x60>)
  4003c8:	6b13      	ldr	r3, [r2, #48]	; 0x30
  4003ca:	f023 0303 	bic.w	r3, r3, #3
  4003ce:	f043 0302 	orr.w	r3, r3, #2
  4003d2:	6313      	str	r3, [r2, #48]	; 0x30
  4003d4:	6e93      	ldr	r3, [r2, #104]	; 0x68
  4003d6:	f013 0f08 	tst.w	r3, #8
  4003da:	d10a      	bne.n	4003f2 <pmc_switch_mck_to_pllack+0x56>
  4003dc:	f44f 5380 	mov.w	r3, #4096	; 0x1000
  4003e0:	4906      	ldr	r1, [pc, #24]	; (4003fc <pmc_switch_mck_to_pllack+0x60>)
  4003e2:	6e8a      	ldr	r2, [r1, #104]	; 0x68
  4003e4:	f012 0f08 	tst.w	r2, #8
  4003e8:	d105      	bne.n	4003f6 <pmc_switch_mck_to_pllack+0x5a>
  4003ea:	3b01      	subs	r3, #1
  4003ec:	d1f9      	bne.n	4003e2 <pmc_switch_mck_to_pllack+0x46>
  4003ee:	2001      	movs	r0, #1
  4003f0:	4770      	bx	lr
  4003f2:	2000      	movs	r0, #0
  4003f4:	4770      	bx	lr
  4003f6:	2000      	movs	r0, #0
  4003f8:	4770      	bx	lr
  4003fa:	bf00      	nop
  4003fc:	400e0600 	.word	0x400e0600

00400400 <pmc_switch_mainck_to_xtal>:
  400400:	b9a0      	cbnz	r0, 40042c <pmc_switch_mainck_to_xtal+0x2c>
  400402:	480e      	ldr	r0, [pc, #56]	; (40043c <pmc_switch_mainck_to_xtal+0x3c>)
  400404:	6a03      	ldr	r3, [r0, #32]
  400406:	0209      	lsls	r1, r1, #8
  400408:	b289      	uxth	r1, r1
  40040a:	4a0d      	ldr	r2, [pc, #52]	; (400440 <pmc_switch_mainck_to_xtal+0x40>)
  40040c:	401a      	ands	r2, r3
  40040e:	4b0d      	ldr	r3, [pc, #52]	; (400444 <pmc_switch_mainck_to_xtal+0x44>)
  400410:	4313      	orrs	r3, r2
  400412:	4319      	orrs	r1, r3
  400414:	6201      	str	r1, [r0, #32]
  400416:	4602      	mov	r2, r0
  400418:	6e93      	ldr	r3, [r2, #104]	; 0x68
  40041a:	f013 0f01 	tst.w	r3, #1
  40041e:	d0fb      	beq.n	400418 <pmc_switch_mainck_to_xtal+0x18>
  400420:	4a06      	ldr	r2, [pc, #24]	; (40043c <pmc_switch_mainck_to_xtal+0x3c>)
  400422:	6a11      	ldr	r1, [r2, #32]
  400424:	4b08      	ldr	r3, [pc, #32]	; (400448 <pmc_switch_mainck_to_xtal+0x48>)
  400426:	430b      	orrs	r3, r1
  400428:	6213      	str	r3, [r2, #32]
  40042a:	4770      	bx	lr
  40042c:	4903      	ldr	r1, [pc, #12]	; (40043c <pmc_switch_mainck_to_xtal+0x3c>)
  40042e:	6a0b      	ldr	r3, [r1, #32]
  400430:	4a06      	ldr	r2, [pc, #24]	; (40044c <pmc_switch_mainck_to_xtal+0x4c>)
  400432:	401a      	ands	r2, r3
  400434:	4b06      	ldr	r3, [pc, #24]	; (400450 <pmc_switch_mainck_to_xtal+0x50>)
  400436:	4313      	orrs	r3, r2
  400438:	620b      	str	r3, [r1, #32]
  40043a:	4770      	bx	lr
  40043c:	400e0600 	.word	0x400e0600
  400440:	ffc8fffc 	.word	0xffc8fffc
  400444:	00370001 	.word	0x00370001
  400448:	01370000 	.word	0x01370000
  40044c:	fec8fffc 	.word	0xfec8fffc
  400450:	01370002 	.word	0x01370002

00400454 <pmc_osc_is_ready_mainck>:
  400454:	4b02      	ldr	r3, [pc, #8]	; (400460 <pmc_osc_is_ready_mainck+0xc>)
  400456:	6e98      	ldr	r0, [r3, #104]	; 0x68
  400458:	f400 3080 	and.w	r0, r0, #65536	; 0x10000
  40045c:	4770      	bx	lr
  40045e:	bf00      	nop
  400460:	400e0600 	.word	0x400e0600

00400464 <pmc_disable_pllack>:
  400464:	f04f 5200 	mov.w	r2, #536870912	; 0x20000000
  400468:	4b01      	ldr	r3, [pc, #4]	; (400470 <pmc_disable_pllack+0xc>)
  40046a:	629a      	str	r2, [r3, #40]	; 0x28
  40046c:	4770      	bx	lr
  40046e:	bf00      	nop
  400470:	400e0600 	.word	0x400e0600

00400474 <pmc_is_locked_pllack>:
  400474:	4b02      	ldr	r3, [pc, #8]	; (400480 <pmc_is_locked_pllack+0xc>)
  400476:	6e98      	ldr	r0, [r3, #104]	; 0x68
  400478:	f000 0002 	and.w	r0, r0, #2
  40047c:	4770      	bx	lr
  40047e:	bf00      	nop
  400480:	400e0600 	.word	0x400e0600

00400484 <pmc_enable_periph_clk>:
  400484:	283f      	cmp	r0, #63	; 0x3f
  400486:	d81e      	bhi.n	4004c6 <pmc_enable_periph_clk+0x42>
  400488:	281f      	cmp	r0, #31
  40048a:	d80c      	bhi.n	4004a6 <pmc_enable_periph_clk+0x22>
  40048c:	4b11      	ldr	r3, [pc, #68]	; (4004d4 <pmc_enable_periph_clk+0x50>)
  40048e:	699a      	ldr	r2, [r3, #24]
  400490:	2301      	movs	r3, #1
  400492:	4083      	lsls	r3, r0
  400494:	4393      	bics	r3, r2
  400496:	d018      	beq.n	4004ca <pmc_enable_periph_clk+0x46>
  400498:	2301      	movs	r3, #1
  40049a:	fa03 f000 	lsl.w	r0, r3, r0
  40049e:	4b0d      	ldr	r3, [pc, #52]	; (4004d4 <pmc_enable_periph_clk+0x50>)
  4004a0:	6118      	str	r0, [r3, #16]
  4004a2:	2000      	movs	r0, #0
  4004a4:	4770      	bx	lr
  4004a6:	3820      	subs	r0, #32
  4004a8:	4b0a      	ldr	r3, [pc, #40]	; (4004d4 <pmc_enable_periph_clk+0x50>)
  4004aa:	f8d3 2108 	ldr.w	r2, [r3, #264]	; 0x108
  4004ae:	2301      	movs	r3, #1
  4004b0:	4083      	lsls	r3, r0
  4004b2:	4393      	bics	r3, r2
  4004b4:	d00b      	beq.n	4004ce <pmc_enable_periph_clk+0x4a>
  4004b6:	2301      	movs	r3, #1
  4004b8:	fa03 f000 	lsl.w	r0, r3, r0
  4004bc:	4b05      	ldr	r3, [pc, #20]	; (4004d4 <pmc_enable_periph_clk+0x50>)
  4004be:	f8c3 0100 	str.w	r0, [r3, #256]	; 0x100
  4004c2:	2000      	movs	r0, #0
  4004c4:	4770      	bx	lr
  4004c6:	2001      	movs	r0, #1
  4004c8:	4770      	bx	lr
  4004ca:	2000      	movs	r0, #0
  4004cc:	4770      	bx	lr
  4004ce:	2000      	movs	r0, #0
  4004d0:	4770      	bx	lr
  4004d2:	bf00      	nop
  4004d4:	400e0600 	.word	0x400e0600

004004d8 <Dummy_Handler>:
  4004d8:	e7fe      	b.n	4004d8 <Dummy_Handler>
	...

004004dc <Reset_Handler>:
  4004dc:	b500      	push	{lr}
  4004de:	b083      	sub	sp, #12
  4004e0:	4b25      	ldr	r3, [pc, #148]	; (400578 <Reset_Handler+0x9c>)
  4004e2:	4a26      	ldr	r2, [pc, #152]	; (40057c <Reset_Handler+0xa0>)
  4004e4:	429a      	cmp	r2, r3
  4004e6:	d010      	beq.n	40050a <Reset_Handler+0x2e>
  4004e8:	4b25      	ldr	r3, [pc, #148]	; (400580 <Reset_Handler+0xa4>)
  4004ea:	4a23      	ldr	r2, [pc, #140]	; (400578 <Reset_Handler+0x9c>)
  4004ec:	429a      	cmp	r2, r3
  4004ee:	d20c      	bcs.n	40050a <Reset_Handler+0x2e>
  4004f0:	3b01      	subs	r3, #1
  4004f2:	1a9b      	subs	r3, r3, r2
  4004f4:	f023 0303 	bic.w	r3, r3, #3
  4004f8:	3304      	adds	r3, #4
  4004fa:	4413      	add	r3, r2
  4004fc:	491f      	ldr	r1, [pc, #124]	; (40057c <Reset_Handler+0xa0>)
  4004fe:	f851 0b04 	ldr.w	r0, [r1], #4
  400502:	f842 0b04 	str.w	r0, [r2], #4
  400506:	429a      	cmp	r2, r3
  400508:	d1f9      	bne.n	4004fe <Reset_Handler+0x22>
  40050a:	4b1e      	ldr	r3, [pc, #120]	; (400584 <Reset_Handler+0xa8>)
  40050c:	4a1e      	ldr	r2, [pc, #120]	; (400588 <Reset_Handler+0xac>)
  40050e:	429a      	cmp	r2, r3
  400510:	d20a      	bcs.n	400528 <Reset_Handler+0x4c>
  400512:	3b01      	subs	r3, #1
  400514:	1a9b      	subs	r3, r3, r2
  400516:	f023 0303 	bic.w	r3, r3, #3
  40051a:	3304      	adds	r3, #4
  40051c:	4413      	add	r3, r2
  40051e:	2100      	movs	r1, #0
  400520:	f842 1b04 	str.w	r1, [r2], #4
  400524:	4293      	cmp	r3, r2
  400526:	d1fb      	bne.n	400520 <Reset_Handler+0x44>
  400528:	4a18      	ldr	r2, [pc, #96]	; (40058c <Reset_Handler+0xb0>)
  40052a:	4b19      	ldr	r3, [pc, #100]	; (400590 <Reset_Handler+0xb4>)
  40052c:	f023 037f 	bic.w	r3, r3, #127	; 0x7f
  400530:	6093      	str	r3, [r2, #8]
  400532:	f3ef 8310 	mrs	r3, PRIMASK
  400536:	fab3 f383 	clz	r3, r3
  40053a:	095b      	lsrs	r3, r3, #5
  40053c:	9301      	str	r3, [sp, #4]
  40053e:	b672      	cpsid	i
  400540:	f3bf 8f5f 	dmb	sy
  400544:	2200      	movs	r2, #0
  400546:	4b13      	ldr	r3, [pc, #76]	; (400594 <Reset_Handler+0xb8>)
  400548:	701a      	strb	r2, [r3, #0]
  40054a:	9901      	ldr	r1, [sp, #4]
  40054c:	4a12      	ldr	r2, [pc, #72]	; (400598 <Reset_Handler+0xbc>)
  40054e:	6813      	ldr	r3, [r2, #0]
  400550:	f443 0370 	orr.w	r3, r3, #15728640	; 0xf00000
  400554:	6013      	str	r3, [r2, #0]
  400556:	f3bf 8f4f 	dsb	sy
  40055a:	f3bf 8f6f 	isb	sy
  40055e:	b129      	cbz	r1, 40056c <Reset_Handler+0x90>
  400560:	2201      	movs	r2, #1
  400562:	4b0c      	ldr	r3, [pc, #48]	; (400594 <Reset_Handler+0xb8>)
  400564:	701a      	strb	r2, [r3, #0]
  400566:	f3bf 8f5f 	dmb	sy
  40056a:	b662      	cpsie	i
  40056c:	4b0b      	ldr	r3, [pc, #44]	; (40059c <Reset_Handler+0xc0>)
  40056e:	4798      	blx	r3
  400570:	4b0b      	ldr	r3, [pc, #44]	; (4005a0 <Reset_Handler+0xc4>)
  400572:	4798      	blx	r3
  400574:	e7fe      	b.n	400574 <Reset_Handler+0x98>
  400576:	bf00      	nop
  400578:	20400000 	.word	0x20400000
  40057c:	0040176c 	.word	0x0040176c
  400580:	20400554 	.word	0x20400554
  400584:	20400604 	.word	0x20400604
  400588:	20400554 	.word	0x20400554
  40058c:	e000ed00 	.word	0xe000ed00
  400590:	00400000 	.word	0x00400000
  400594:	2040000a 	.word	0x2040000a
  400598:	e000ed88 	.word	0xe000ed88
  40059c:	004015cd 	.word	0x004015cd
  4005a0:	00400781 	.word	0x00400781

004005a4 <SystemCoreClockUpdate>:
  4005a4:	4b3b      	ldr	r3, [pc, #236]	; (400694 <SystemCoreClockUpdate+0xf0>)
  4005a6:	6b1b      	ldr	r3, [r3, #48]	; 0x30
  4005a8:	f003 0303 	and.w	r3, r3, #3
  4005ac:	2b01      	cmp	r3, #1
  4005ae:	d01d      	beq.n	4005ec <SystemCoreClockUpdate+0x48>
  4005b0:	b183      	cbz	r3, 4005d4 <SystemCoreClockUpdate+0x30>
  4005b2:	2b02      	cmp	r3, #2
  4005b4:	d036      	beq.n	400624 <SystemCoreClockUpdate+0x80>
  4005b6:	4b37      	ldr	r3, [pc, #220]	; (400694 <SystemCoreClockUpdate+0xf0>)
  4005b8:	6b1b      	ldr	r3, [r3, #48]	; 0x30
  4005ba:	f003 0370 	and.w	r3, r3, #112	; 0x70
  4005be:	2b70      	cmp	r3, #112	; 0x70
  4005c0:	d05f      	beq.n	400682 <SystemCoreClockUpdate+0xde>
  4005c2:	4b34      	ldr	r3, [pc, #208]	; (400694 <SystemCoreClockUpdate+0xf0>)
  4005c4:	6b1a      	ldr	r2, [r3, #48]	; 0x30
  4005c6:	4934      	ldr	r1, [pc, #208]	; (400698 <SystemCoreClockUpdate+0xf4>)
  4005c8:	f3c2 1202 	ubfx	r2, r2, #4, #3
  4005cc:	680b      	ldr	r3, [r1, #0]
  4005ce:	40d3      	lsrs	r3, r2
  4005d0:	600b      	str	r3, [r1, #0]
  4005d2:	4770      	bx	lr
  4005d4:	4b31      	ldr	r3, [pc, #196]	; (40069c <SystemCoreClockUpdate+0xf8>)
  4005d6:	695b      	ldr	r3, [r3, #20]
  4005d8:	f013 0f80 	tst.w	r3, #128	; 0x80
  4005dc:	bf14      	ite	ne
  4005de:	f44f 4200 	movne.w	r2, #32768	; 0x8000
  4005e2:	f44f 42fa 	moveq.w	r2, #32000	; 0x7d00
  4005e6:	4b2c      	ldr	r3, [pc, #176]	; (400698 <SystemCoreClockUpdate+0xf4>)
  4005e8:	601a      	str	r2, [r3, #0]
  4005ea:	e7e4      	b.n	4005b6 <SystemCoreClockUpdate+0x12>
  4005ec:	4b29      	ldr	r3, [pc, #164]	; (400694 <SystemCoreClockUpdate+0xf0>)
  4005ee:	6a1b      	ldr	r3, [r3, #32]
  4005f0:	f013 7f80 	tst.w	r3, #16777216	; 0x1000000
  4005f4:	d003      	beq.n	4005fe <SystemCoreClockUpdate+0x5a>
  4005f6:	4a2a      	ldr	r2, [pc, #168]	; (4006a0 <SystemCoreClockUpdate+0xfc>)
  4005f8:	4b27      	ldr	r3, [pc, #156]	; (400698 <SystemCoreClockUpdate+0xf4>)
  4005fa:	601a      	str	r2, [r3, #0]
  4005fc:	e7db      	b.n	4005b6 <SystemCoreClockUpdate+0x12>
  4005fe:	4a29      	ldr	r2, [pc, #164]	; (4006a4 <SystemCoreClockUpdate+0x100>)
  400600:	4b25      	ldr	r3, [pc, #148]	; (400698 <SystemCoreClockUpdate+0xf4>)
  400602:	601a      	str	r2, [r3, #0]
  400604:	4b23      	ldr	r3, [pc, #140]	; (400694 <SystemCoreClockUpdate+0xf0>)
  400606:	6a1b      	ldr	r3, [r3, #32]
  400608:	f003 0370 	and.w	r3, r3, #112	; 0x70
  40060c:	2b10      	cmp	r3, #16
  40060e:	d005      	beq.n	40061c <SystemCoreClockUpdate+0x78>
  400610:	2b20      	cmp	r3, #32
  400612:	d1d0      	bne.n	4005b6 <SystemCoreClockUpdate+0x12>
  400614:	4a22      	ldr	r2, [pc, #136]	; (4006a0 <SystemCoreClockUpdate+0xfc>)
  400616:	4b20      	ldr	r3, [pc, #128]	; (400698 <SystemCoreClockUpdate+0xf4>)
  400618:	601a      	str	r2, [r3, #0]
  40061a:	e7cc      	b.n	4005b6 <SystemCoreClockUpdate+0x12>
  40061c:	4a22      	ldr	r2, [pc, #136]	; (4006a8 <SystemCoreClockUpdate+0x104>)
  40061e:	4b1e      	ldr	r3, [pc, #120]	; (400698 <SystemCoreClockUpdate+0xf4>)
  400620:	601a      	str	r2, [r3, #0]
  400622:	e7c8      	b.n	4005b6 <SystemCoreClockUpdate+0x12>
  400624:	4b1b      	ldr	r3, [pc, #108]	; (400694 <SystemCoreClockUpdate+0xf0>)
  400626:	6a1b      	ldr	r3, [r3, #32]
  400628:	f013 7f80 	tst.w	r3, #16777216	; 0x1000000
  40062c:	d016      	beq.n	40065c <SystemCoreClockUpdate+0xb8>
  40062e:	4a1c      	ldr	r2, [pc, #112]	; (4006a0 <SystemCoreClockUpdate+0xfc>)
  400630:	4b19      	ldr	r3, [pc, #100]	; (400698 <SystemCoreClockUpdate+0xf4>)
  400632:	601a      	str	r2, [r3, #0]
  400634:	4b17      	ldr	r3, [pc, #92]	; (400694 <SystemCoreClockUpdate+0xf0>)
  400636:	6b1b      	ldr	r3, [r3, #48]	; 0x30
  400638:	f003 0303 	and.w	r3, r3, #3
  40063c:	2b02      	cmp	r3, #2
  40063e:	d1ba      	bne.n	4005b6 <SystemCoreClockUpdate+0x12>
  400640:	4a14      	ldr	r2, [pc, #80]	; (400694 <SystemCoreClockUpdate+0xf0>)
  400642:	6a91      	ldr	r1, [r2, #40]	; 0x28
  400644:	6a92      	ldr	r2, [r2, #40]	; 0x28
  400646:	4814      	ldr	r0, [pc, #80]	; (400698 <SystemCoreClockUpdate+0xf4>)
  400648:	f3c1 410a 	ubfx	r1, r1, #16, #11
  40064c:	6803      	ldr	r3, [r0, #0]
  40064e:	fb01 3303 	mla	r3, r1, r3, r3
  400652:	b2d2      	uxtb	r2, r2
  400654:	fbb3 f3f2 	udiv	r3, r3, r2
  400658:	6003      	str	r3, [r0, #0]
  40065a:	e7ac      	b.n	4005b6 <SystemCoreClockUpdate+0x12>
  40065c:	4a11      	ldr	r2, [pc, #68]	; (4006a4 <SystemCoreClockUpdate+0x100>)
  40065e:	4b0e      	ldr	r3, [pc, #56]	; (400698 <SystemCoreClockUpdate+0xf4>)
  400660:	601a      	str	r2, [r3, #0]
  400662:	4b0c      	ldr	r3, [pc, #48]	; (400694 <SystemCoreClockUpdate+0xf0>)
  400664:	6a1b      	ldr	r3, [r3, #32]
  400666:	f003 0370 	and.w	r3, r3, #112	; 0x70
  40066a:	2b10      	cmp	r3, #16
  40066c:	d005      	beq.n	40067a <SystemCoreClockUpdate+0xd6>
  40066e:	2b20      	cmp	r3, #32
  400670:	d1e0      	bne.n	400634 <SystemCoreClockUpdate+0x90>
  400672:	4a0b      	ldr	r2, [pc, #44]	; (4006a0 <SystemCoreClockUpdate+0xfc>)
  400674:	4b08      	ldr	r3, [pc, #32]	; (400698 <SystemCoreClockUpdate+0xf4>)
  400676:	601a      	str	r2, [r3, #0]
  400678:	e7dc      	b.n	400634 <SystemCoreClockUpdate+0x90>
  40067a:	4a0b      	ldr	r2, [pc, #44]	; (4006a8 <SystemCoreClockUpdate+0x104>)
  40067c:	4b06      	ldr	r3, [pc, #24]	; (400698 <SystemCoreClockUpdate+0xf4>)
  40067e:	601a      	str	r2, [r3, #0]
  400680:	e7d8      	b.n	400634 <SystemCoreClockUpdate+0x90>
  400682:	4a05      	ldr	r2, [pc, #20]	; (400698 <SystemCoreClockUpdate+0xf4>)
  400684:	6813      	ldr	r3, [r2, #0]
  400686:	4909      	ldr	r1, [pc, #36]	; (4006ac <SystemCoreClockUpdate+0x108>)
  400688:	fba1 1303 	umull	r1, r3, r1, r3
  40068c:	085b      	lsrs	r3, r3, #1
  40068e:	6013      	str	r3, [r2, #0]
  400690:	4770      	bx	lr
  400692:	bf00      	nop
  400694:	400e0600 	.word	0x400e0600
  400698:	2040000c 	.word	0x2040000c
  40069c:	400e1810 	.word	0x400e1810
  4006a0:	00b71b00 	.word	0x00b71b00
  4006a4:	003d0900 	.word	0x003d0900
  4006a8:	007a1200 	.word	0x007a1200
  4006ac:	aaaaaaab 	.word	0xaaaaaaab

004006b0 <system_init_flash>:
  4006b0:	4b12      	ldr	r3, [pc, #72]	; (4006fc <system_init_flash+0x4c>)
  4006b2:	4298      	cmp	r0, r3
  4006b4:	d911      	bls.n	4006da <system_init_flash+0x2a>
  4006b6:	4b12      	ldr	r3, [pc, #72]	; (400700 <system_init_flash+0x50>)
  4006b8:	4298      	cmp	r0, r3
  4006ba:	d913      	bls.n	4006e4 <system_init_flash+0x34>
  4006bc:	4b11      	ldr	r3, [pc, #68]	; (400704 <system_init_flash+0x54>)
  4006be:	4298      	cmp	r0, r3
  4006c0:	d914      	bls.n	4006ec <system_init_flash+0x3c>
  4006c2:	4b11      	ldr	r3, [pc, #68]	; (400708 <system_init_flash+0x58>)
  4006c4:	4298      	cmp	r0, r3
  4006c6:	d915      	bls.n	4006f4 <system_init_flash+0x44>
  4006c8:	4b10      	ldr	r3, [pc, #64]	; (40070c <system_init_flash+0x5c>)
  4006ca:	4298      	cmp	r0, r3
  4006cc:	bf94      	ite	ls
  4006ce:	f04f 2204 	movls.w	r2, #67109888	; 0x4000400
  4006d2:	4a0f      	ldrhi	r2, [pc, #60]	; (400710 <system_init_flash+0x60>)
  4006d4:	4b0f      	ldr	r3, [pc, #60]	; (400714 <system_init_flash+0x64>)
  4006d6:	601a      	str	r2, [r3, #0]
  4006d8:	4770      	bx	lr
  4006da:	f04f 6280 	mov.w	r2, #67108864	; 0x4000000
  4006de:	4b0d      	ldr	r3, [pc, #52]	; (400714 <system_init_flash+0x64>)
  4006e0:	601a      	str	r2, [r3, #0]
  4006e2:	4770      	bx	lr
  4006e4:	4a0c      	ldr	r2, [pc, #48]	; (400718 <system_init_flash+0x68>)
  4006e6:	4b0b      	ldr	r3, [pc, #44]	; (400714 <system_init_flash+0x64>)
  4006e8:	601a      	str	r2, [r3, #0]
  4006ea:	4770      	bx	lr
  4006ec:	4a0b      	ldr	r2, [pc, #44]	; (40071c <system_init_flash+0x6c>)
  4006ee:	4b09      	ldr	r3, [pc, #36]	; (400714 <system_init_flash+0x64>)
  4006f0:	601a      	str	r2, [r3, #0]
  4006f2:	4770      	bx	lr
  4006f4:	4a0a      	ldr	r2, [pc, #40]	; (400720 <system_init_flash+0x70>)
  4006f6:	4b07      	ldr	r3, [pc, #28]	; (400714 <system_init_flash+0x64>)
  4006f8:	601a      	str	r2, [r3, #0]
  4006fa:	4770      	bx	lr
  4006fc:	01312cff 	.word	0x01312cff
  400700:	026259ff 	.word	0x026259ff
  400704:	039386ff 	.word	0x039386ff
  400708:	04c4b3ff 	.word	0x04c4b3ff
  40070c:	05f5e0ff 	.word	0x05f5e0ff
  400710:	04000500 	.word	0x04000500
  400714:	400e0c00 	.word	0x400e0c00
  400718:	04000100 	.word	0x04000100
  40071c:	04000200 	.word	0x04000200
  400720:	04000300 	.word	0x04000300

00400724 <init>:
/* funcoes                                                              */
/************************************************************************/

// Função de inicialização do uC
void init(void)
{
  400724:	b570      	push	{r4, r5, r6, lr}
  400726:	b082      	sub	sp, #8
	// Initialize the board clock
	sysclk_init();
  400728:	4b0e      	ldr	r3, [pc, #56]	; (400764 <init+0x40>)
  40072a:	4798      	blx	r3
	
	// Desativa WatchDog Timer
	WDT->WDT_MR = WDT_MR_WDDIS;
  40072c:	f44f 4200 	mov.w	r2, #32768	; 0x8000
  400730:	4b0d      	ldr	r3, [pc, #52]	; (400768 <init+0x44>)
  400732:	605a      	str	r2, [r3, #4]
	
	// Ativa o PIO na qual o LED foi conectado
	// para que possamos controlar o LED.
	pmc_enable_periph_clk(BUZZER_PIO_ID);
  400734:	200a      	movs	r0, #10
  400736:	4b0d      	ldr	r3, [pc, #52]	; (40076c <init+0x48>)
  400738:	4798      	blx	r3
	
	//Inicializa PC8 como saída
	pio_set_output(BUZZER_PIO, BUZZER_PIO_IDX_MASK, 0, 0, 0);
  40073a:	4d0d      	ldr	r5, [pc, #52]	; (400770 <init+0x4c>)
  40073c:	2400      	movs	r4, #0
  40073e:	9400      	str	r4, [sp, #0]
  400740:	4623      	mov	r3, r4
  400742:	4622      	mov	r2, r4
  400744:	2110      	movs	r1, #16
  400746:	4628      	mov	r0, r5
  400748:	4e0a      	ldr	r6, [pc, #40]	; (400774 <init+0x50>)
  40074a:	47b0      	blx	r6
	
	// configura pino ligado ao botão como entrada com um pull-up.
	pio_set_input(BUT_PIO,BUT_PIO_IDX,PIO_DEFAULT);
  40074c:	4622      	mov	r2, r4
  40074e:	210b      	movs	r1, #11
  400750:	4628      	mov	r0, r5
  400752:	4b09      	ldr	r3, [pc, #36]	; (400778 <init+0x54>)
  400754:	4798      	blx	r3
	
	//Configurando o pull-up
	pio_pull_up(BUT_PIO,BUT_PIO_IDX,1);
  400756:	2201      	movs	r2, #1
  400758:	210b      	movs	r1, #11
  40075a:	4628      	mov	r0, r5
  40075c:	4b07      	ldr	r3, [pc, #28]	; (40077c <init+0x58>)
  40075e:	4798      	blx	r3
}
  400760:	b002      	add	sp, #8
  400762:	bd70      	pop	{r4, r5, r6, pc}
  400764:	004001ad 	.word	0x004001ad
  400768:	400e1850 	.word	0x400e1850
  40076c:	00400485 	.word	0x00400485
  400770:	400e0e00 	.word	0x400e0e00
  400774:	0040027f 	.word	0x0040027f
  400778:	00400249 	.word	0x00400249
  40077c:	0040021d 	.word	0x0040021d

00400780 <main>:
/* Main                                                                 */
/************************************************************************/

// Funcao principal chamada na inicalizacao do uC.
int main(void)
{
  400780:	e92d 4ff0 	stmdb	sp!, {r4, r5, r6, r7, r8, r9, sl, fp, lr}
  400784:	ed2d 8b04 	vpush	{d8-d9}
  400788:	b087      	sub	sp, #28
  init();
  40078a:	4b69      	ldr	r3, [pc, #420]	; (400930 <main+0x1b0>)
  40078c:	4798      	blx	r3
					pio_clear(PIOA, BUZZER_PIO_IDX_MASK);
				}
				else{
					duracao +=periodo*1000;
					pio_set(PIOA, BUZZER_PIO_IDX_MASK);
					delay_us(periodo*1000000/2);
  40078e:	ed9f 9b62 	vldr	d9, [pc, #392]	; 400918 <main+0x198>
  400792:	ed8d 9b04 	vstr	d9, [sp, #16]
  400796:	4b67      	ldr	r3, [pc, #412]	; (400934 <main+0x1b4>)
  400798:	f8df a1e8 	ldr.w	sl, [pc, #488]	; 400984 <main+0x204>
			double periodo = 1.0/notesI[i];
  40079c:	f8df b1e8 	ldr.w	fp, [pc, #488]	; 400988 <main+0x208>
			if(!pio_get(PIOA,34, BUT_PIO_IDX_MASK)){
  4007a0:	4699      	mov	r9, r3
  4007a2:	e09d      	b.n	4008e0 <main+0x160>
					pio_clear(PIOA, BUZZER_PIO_IDX_MASK);
  4007a4:	4e64      	ldr	r6, [pc, #400]	; (400938 <main+0x1b8>)
					delay_ms(200);
  4007a6:	4c65      	ldr	r4, [pc, #404]	; (40093c <main+0x1bc>)
					pio_clear(PIOA, BUZZER_PIO_IDX_MASK);
  4007a8:	2110      	movs	r1, #16
  4007aa:	4865      	ldr	r0, [pc, #404]	; (400940 <main+0x1c0>)
  4007ac:	47b0      	blx	r6
					delay_ms(200);
  4007ae:	4620      	mov	r0, r4
  4007b0:	4b64      	ldr	r3, [pc, #400]	; (400944 <main+0x1c4>)
  4007b2:	4798      	blx	r3
					if(!pio_get(PIOA,34, BUT_PIO_IDX_MASK)){
  4007b4:	f44f 6200 	mov.w	r2, #2048	; 0x800
  4007b8:	2122      	movs	r1, #34	; 0x22
  4007ba:	4861      	ldr	r0, [pc, #388]	; (400940 <main+0x1c0>)
  4007bc:	4b62      	ldr	r3, [pc, #392]	; (400948 <main+0x1c8>)
  4007be:	4798      	blx	r3
				while(pausa){
  4007c0:	2800      	cmp	r0, #0
  4007c2:	d1f1      	bne.n	4007a8 <main+0x28>
  4007c4:	e0a1      	b.n	40090a <main+0x18a>
					delay_ms(durationI[i]);
  4007c6:	2033      	movs	r0, #51	; 0x33
  4007c8:	4b5e      	ldr	r3, [pc, #376]	; (400944 <main+0x1c4>)
  4007ca:	4798      	blx	r3
					duracao += durationI[i]*BI;
  4007cc:	6823      	ldr	r3, [r4, #0]
  4007ce:	4a5f      	ldr	r2, [pc, #380]	; (40094c <main+0x1cc>)
  4007d0:	6810      	ldr	r0, [r2, #0]
  4007d2:	fb00 f003 	mul.w	r0, r0, r3
  4007d6:	47d8      	blx	fp
  4007d8:	4602      	mov	r2, r0
  4007da:	460b      	mov	r3, r1
  4007dc:	e9dd 0100 	ldrd	r0, r1, [sp]
  4007e0:	4c5b      	ldr	r4, [pc, #364]	; (400950 <main+0x1d0>)
  4007e2:	47a0      	blx	r4
  4007e4:	e9cd 0100 	strd	r0, r1, [sp]
					pio_clear(PIOA, BUZZER_PIO_IDX_MASK);
  4007e8:	2110      	movs	r1, #16
  4007ea:	4855      	ldr	r0, [pc, #340]	; (400940 <main+0x1c0>)
  4007ec:	4b52      	ldr	r3, [pc, #328]	; (400938 <main+0x1b8>)
  4007ee:	4798      	blx	r3
  4007f0:	4654      	mov	r4, sl
			while(duracao < durationI[i]*BI){
  4007f2:	f8da 6000 	ldr.w	r6, [sl]
  4007f6:	4b55      	ldr	r3, [pc, #340]	; (40094c <main+0x1cc>)
  4007f8:	6818      	ldr	r0, [r3, #0]
  4007fa:	fb00 f006 	mul.w	r0, r0, r6
  4007fe:	47d8      	blx	fp
  400800:	4602      	mov	r2, r0
  400802:	460b      	mov	r3, r1
  400804:	e9dd 0100 	ldrd	r0, r1, [sp]
  400808:	4f52      	ldr	r7, [pc, #328]	; (400954 <main+0x1d4>)
  40080a:	47b8      	blx	r7
  40080c:	2800      	cmp	r0, #0
  40080e:	d05f      	beq.n	4008d0 <main+0x150>
				if(notesI[i]==0){
  400810:	682b      	ldr	r3, [r5, #0]
  400812:	b99b      	cbnz	r3, 40083c <main+0xbc>
					delay_ms(durationI[i]);
  400814:	2e00      	cmp	r6, #0
  400816:	d0d6      	beq.n	4007c6 <main+0x46>
  400818:	17f3      	asrs	r3, r6, #31
  40081a:	fba6 0108 	umull	r0, r1, r6, r8
  40081e:	fb08 1103 	mla	r1, r8, r3, r1
  400822:	f241 722c 	movw	r2, #5932	; 0x172c
  400826:	2300      	movs	r3, #0
  400828:	f241 762b 	movw	r6, #5931	; 0x172b
  40082c:	2700      	movs	r7, #0
  40082e:	1980      	adds	r0, r0, r6
  400830:	4179      	adcs	r1, r7
  400832:	4e49      	ldr	r6, [pc, #292]	; (400958 <main+0x1d8>)
  400834:	47b0      	blx	r6
  400836:	4b43      	ldr	r3, [pc, #268]	; (400944 <main+0x1c4>)
  400838:	4798      	blx	r3
  40083a:	e7c7      	b.n	4007cc <main+0x4c>
					duracao +=periodo*1000;
  40083c:	4c47      	ldr	r4, [pc, #284]	; (40095c <main+0x1dc>)
  40083e:	2200      	movs	r2, #0
  400840:	4b47      	ldr	r3, [pc, #284]	; (400960 <main+0x1e0>)
  400842:	e9dd 0102 	ldrd	r0, r1, [sp, #8]
  400846:	47a0      	blx	r4
  400848:	4602      	mov	r2, r0
  40084a:	460b      	mov	r3, r1
  40084c:	e9dd 0100 	ldrd	r0, r1, [sp]
  400850:	4e3f      	ldr	r6, [pc, #252]	; (400950 <main+0x1d0>)
  400852:	47b0      	blx	r6
  400854:	e9cd 0100 	strd	r0, r1, [sp]
					pio_set(PIOA, BUZZER_PIO_IDX_MASK);
  400858:	2110      	movs	r1, #16
  40085a:	4839      	ldr	r0, [pc, #228]	; (400940 <main+0x1c0>)
  40085c:	4b41      	ldr	r3, [pc, #260]	; (400964 <main+0x1e4>)
  40085e:	4798      	blx	r3
					delay_us(periodo*1000000/2);
  400860:	a32f      	add	r3, pc, #188	; (adr r3, 400920 <main+0x1a0>)
  400862:	e9d3 2300 	ldrd	r2, r3, [r3]
  400866:	e9dd 0102 	ldrd	r0, r1, [sp, #8]
  40086a:	47a0      	blx	r4
  40086c:	ec53 2b18 	vmov	r2, r3, d8
  400870:	47a0      	blx	r4
  400872:	4606      	mov	r6, r0
  400874:	460f      	mov	r7, r1
  400876:	e9dd 2304 	ldrd	r2, r3, [sp, #16]
  40087a:	4c3b      	ldr	r4, [pc, #236]	; (400968 <main+0x1e8>)
  40087c:	47a0      	blx	r4
  40087e:	b9e8      	cbnz	r0, 4008bc <main+0x13c>
  400880:	4630      	mov	r0, r6
  400882:	4639      	mov	r1, r7
  400884:	4b39      	ldr	r3, [pc, #228]	; (40096c <main+0x1ec>)
  400886:	4798      	blx	r3
  400888:	fba0 6708 	umull	r6, r7, r0, r8
  40088c:	fb08 7701 	mla	r7, r8, r1, r7
  400890:	4a37      	ldr	r2, [pc, #220]	; (400970 <main+0x1f0>)
  400892:	2300      	movs	r3, #0
  400894:	4837      	ldr	r0, [pc, #220]	; (400974 <main+0x1f4>)
  400896:	2100      	movs	r1, #0
  400898:	1980      	adds	r0, r0, r6
  40089a:	4179      	adcs	r1, r7
  40089c:	4c2e      	ldr	r4, [pc, #184]	; (400958 <main+0x1d8>)
  40089e:	47a0      	blx	r4
  4008a0:	4606      	mov	r6, r0
  4008a2:	4c28      	ldr	r4, [pc, #160]	; (400944 <main+0x1c4>)
  4008a4:	47a0      	blx	r4
					pio_clear(PIOA, BUZZER_PIO_IDX_MASK);
  4008a6:	2110      	movs	r1, #16
  4008a8:	4825      	ldr	r0, [pc, #148]	; (400940 <main+0x1c0>)
  4008aa:	4b23      	ldr	r3, [pc, #140]	; (400938 <main+0x1b8>)
  4008ac:	4798      	blx	r3
					delay_us(periodo*1000000/2);
  4008ae:	4630      	mov	r0, r6
  4008b0:	47a0      	blx	r4
					pio_clear(PIOA, BUZZER_PIO_IDX_MASK);
  4008b2:	2110      	movs	r1, #16
  4008b4:	4822      	ldr	r0, [pc, #136]	; (400940 <main+0x1c0>)
  4008b6:	4b20      	ldr	r3, [pc, #128]	; (400938 <main+0x1b8>)
  4008b8:	4798      	blx	r3
  4008ba:	e799      	b.n	4007f0 <main+0x70>
					delay_us(periodo*1000000/2);
  4008bc:	2033      	movs	r0, #51	; 0x33
  4008be:	4c21      	ldr	r4, [pc, #132]	; (400944 <main+0x1c4>)
  4008c0:	47a0      	blx	r4
					pio_clear(PIOA, BUZZER_PIO_IDX_MASK);
  4008c2:	2110      	movs	r1, #16
  4008c4:	481e      	ldr	r0, [pc, #120]	; (400940 <main+0x1c0>)
  4008c6:	4b1c      	ldr	r3, [pc, #112]	; (400938 <main+0x1b8>)
  4008c8:	4798      	blx	r3
					delay_us(periodo*1000000/2);
  4008ca:	2033      	movs	r0, #51	; 0x33
  4008cc:	47a0      	blx	r4
  4008ce:	e7f0      	b.n	4008b2 <main+0x132>
  4008d0:	f109 0904 	add.w	r9, r9, #4
  4008d4:	f10a 0a04 	add.w	sl, sl, #4
		for (int i=0;i<34;i++){
  4008d8:	4b27      	ldr	r3, [pc, #156]	; (400978 <main+0x1f8>)
  4008da:	454b      	cmp	r3, r9
  4008dc:	f43f af5b 	beq.w	400796 <main+0x16>
  4008e0:	464d      	mov	r5, r9
			double periodo = 1.0/notesI[i];
  4008e2:	f8d9 0000 	ldr.w	r0, [r9]
  4008e6:	47d8      	blx	fp
  4008e8:	4602      	mov	r2, r0
  4008ea:	460b      	mov	r3, r1
  4008ec:	2000      	movs	r0, #0
  4008ee:	4923      	ldr	r1, [pc, #140]	; (40097c <main+0x1fc>)
  4008f0:	4c23      	ldr	r4, [pc, #140]	; (400980 <main+0x200>)
  4008f2:	47a0      	blx	r4
  4008f4:	e9cd 0102 	strd	r0, r1, [sp, #8]
			if(!pio_get(PIOA,34, BUT_PIO_IDX_MASK)){
  4008f8:	f44f 6200 	mov.w	r2, #2048	; 0x800
  4008fc:	2122      	movs	r1, #34	; 0x22
  4008fe:	4810      	ldr	r0, [pc, #64]	; (400940 <main+0x1c0>)
  400900:	4b11      	ldr	r3, [pc, #68]	; (400948 <main+0x1c8>)
  400902:	4798      	blx	r3
  400904:	2800      	cmp	r0, #0
  400906:	f43f af4d 	beq.w	4007a4 <main+0x24>
{
  40090a:	ed8d 9b00 	vstr	d9, [sp]
					delay_us(periodo*1000000/2);
  40090e:	ed9f 8b06 	vldr	d8, [pc, #24]	; 400928 <main+0x1a8>
  400912:	f8df 8078 	ldr.w	r8, [pc, #120]	; 40098c <main+0x20c>
  400916:	e76b      	b.n	4007f0 <main+0x70>
	...
  400924:	412e8480 	.word	0x412e8480
  400928:	00000000 	.word	0x00000000
  40092c:	3fe00000 	.word	0x3fe00000
  400930:	00400725 	.word	0x00400725
  400934:	2040009c 	.word	0x2040009c
  400938:	0040022b 	.word	0x0040022b
  40093c:	009a5649 	.word	0x009a5649
  400940:	400e0e00 	.word	0x400e0e00
  400944:	20400001 	.word	0x20400001
  400948:	0040022f 	.word	0x0040022f
  40094c:	20400010 	.word	0x20400010
  400950:	0040099d 	.word	0x0040099d
  400954:	004011e5 	.word	0x004011e5
  400958:	00401235 	.word	0x00401235
  40095c:	00400d01 	.word	0x00400d01
  400960:	408f4000 	.word	0x408f4000
  400964:	00400227 	.word	0x00400227
  400968:	004011d1 	.word	0x004011d1
  40096c:	00401265 	.word	0x00401265
  400970:	005a83e0 	.word	0x005a83e0
  400974:	005a83df 	.word	0x005a83df
  400978:	20400124 	.word	0x20400124
  40097c:	3ff00000 	.word	0x3ff00000
  400980:	00400f55 	.word	0x00400f55
  400984:	20400014 	.word	0x20400014
  400988:	00400c35 	.word	0x00400c35
  40098c:	11e1a300 	.word	0x11e1a300

00400990 <__aeabi_drsub>:
  400990:	f081 4100 	eor.w	r1, r1, #2147483648	; 0x80000000
  400994:	e002      	b.n	40099c <__adddf3>
  400996:	bf00      	nop

00400998 <__aeabi_dsub>:
  400998:	f083 4300 	eor.w	r3, r3, #2147483648	; 0x80000000

0040099c <__adddf3>:
  40099c:	b530      	push	{r4, r5, lr}
  40099e:	ea4f 0441 	mov.w	r4, r1, lsl #1
  4009a2:	ea4f 0543 	mov.w	r5, r3, lsl #1
  4009a6:	ea94 0f05 	teq	r4, r5
  4009aa:	bf08      	it	eq
  4009ac:	ea90 0f02 	teqeq	r0, r2
  4009b0:	bf1f      	itttt	ne
  4009b2:	ea54 0c00 	orrsne.w	ip, r4, r0
  4009b6:	ea55 0c02 	orrsne.w	ip, r5, r2
  4009ba:	ea7f 5c64 	mvnsne.w	ip, r4, asr #21
  4009be:	ea7f 5c65 	mvnsne.w	ip, r5, asr #21
  4009c2:	f000 80e2 	beq.w	400b8a <__adddf3+0x1ee>
  4009c6:	ea4f 5454 	mov.w	r4, r4, lsr #21
  4009ca:	ebd4 5555 	rsbs	r5, r4, r5, lsr #21
  4009ce:	bfb8      	it	lt
  4009d0:	426d      	neglt	r5, r5
  4009d2:	dd0c      	ble.n	4009ee <__adddf3+0x52>
  4009d4:	442c      	add	r4, r5
  4009d6:	ea80 0202 	eor.w	r2, r0, r2
  4009da:	ea81 0303 	eor.w	r3, r1, r3
  4009de:	ea82 0000 	eor.w	r0, r2, r0
  4009e2:	ea83 0101 	eor.w	r1, r3, r1
  4009e6:	ea80 0202 	eor.w	r2, r0, r2
  4009ea:	ea81 0303 	eor.w	r3, r1, r3
  4009ee:	2d36      	cmp	r5, #54	; 0x36
  4009f0:	bf88      	it	hi
  4009f2:	bd30      	pophi	{r4, r5, pc}
  4009f4:	f011 4f00 	tst.w	r1, #2147483648	; 0x80000000
  4009f8:	ea4f 3101 	mov.w	r1, r1, lsl #12
  4009fc:	f44f 1c80 	mov.w	ip, #1048576	; 0x100000
  400a00:	ea4c 3111 	orr.w	r1, ip, r1, lsr #12
  400a04:	d002      	beq.n	400a0c <__adddf3+0x70>
  400a06:	4240      	negs	r0, r0
  400a08:	eb61 0141 	sbc.w	r1, r1, r1, lsl #1
  400a0c:	f013 4f00 	tst.w	r3, #2147483648	; 0x80000000
  400a10:	ea4f 3303 	mov.w	r3, r3, lsl #12
  400a14:	ea4c 3313 	orr.w	r3, ip, r3, lsr #12
  400a18:	d002      	beq.n	400a20 <__adddf3+0x84>
  400a1a:	4252      	negs	r2, r2
  400a1c:	eb63 0343 	sbc.w	r3, r3, r3, lsl #1
  400a20:	ea94 0f05 	teq	r4, r5
  400a24:	f000 80a7 	beq.w	400b76 <__adddf3+0x1da>
  400a28:	f1a4 0401 	sub.w	r4, r4, #1
  400a2c:	f1d5 0e20 	rsbs	lr, r5, #32
  400a30:	db0d      	blt.n	400a4e <__adddf3+0xb2>
  400a32:	fa02 fc0e 	lsl.w	ip, r2, lr
  400a36:	fa22 f205 	lsr.w	r2, r2, r5
  400a3a:	1880      	adds	r0, r0, r2
  400a3c:	f141 0100 	adc.w	r1, r1, #0
  400a40:	fa03 f20e 	lsl.w	r2, r3, lr
  400a44:	1880      	adds	r0, r0, r2
  400a46:	fa43 f305 	asr.w	r3, r3, r5
  400a4a:	4159      	adcs	r1, r3
  400a4c:	e00e      	b.n	400a6c <__adddf3+0xd0>
  400a4e:	f1a5 0520 	sub.w	r5, r5, #32
  400a52:	f10e 0e20 	add.w	lr, lr, #32
  400a56:	2a01      	cmp	r2, #1
  400a58:	fa03 fc0e 	lsl.w	ip, r3, lr
  400a5c:	bf28      	it	cs
  400a5e:	f04c 0c02 	orrcs.w	ip, ip, #2
  400a62:	fa43 f305 	asr.w	r3, r3, r5
  400a66:	18c0      	adds	r0, r0, r3
  400a68:	eb51 71e3 	adcs.w	r1, r1, r3, asr #31
  400a6c:	f001 4500 	and.w	r5, r1, #2147483648	; 0x80000000
  400a70:	d507      	bpl.n	400a82 <__adddf3+0xe6>
  400a72:	f04f 0e00 	mov.w	lr, #0
  400a76:	f1dc 0c00 	rsbs	ip, ip, #0
  400a7a:	eb7e 0000 	sbcs.w	r0, lr, r0
  400a7e:	eb6e 0101 	sbc.w	r1, lr, r1
  400a82:	f5b1 1f80 	cmp.w	r1, #1048576	; 0x100000
  400a86:	d31b      	bcc.n	400ac0 <__adddf3+0x124>
  400a88:	f5b1 1f00 	cmp.w	r1, #2097152	; 0x200000
  400a8c:	d30c      	bcc.n	400aa8 <__adddf3+0x10c>
  400a8e:	0849      	lsrs	r1, r1, #1
  400a90:	ea5f 0030 	movs.w	r0, r0, rrx
  400a94:	ea4f 0c3c 	mov.w	ip, ip, rrx
  400a98:	f104 0401 	add.w	r4, r4, #1
  400a9c:	ea4f 5244 	mov.w	r2, r4, lsl #21
  400aa0:	f512 0f80 	cmn.w	r2, #4194304	; 0x400000
  400aa4:	f080 809a 	bcs.w	400bdc <__adddf3+0x240>
  400aa8:	f1bc 4f00 	cmp.w	ip, #2147483648	; 0x80000000
  400aac:	bf08      	it	eq
  400aae:	ea5f 0c50 	movseq.w	ip, r0, lsr #1
  400ab2:	f150 0000 	adcs.w	r0, r0, #0
  400ab6:	eb41 5104 	adc.w	r1, r1, r4, lsl #20
  400aba:	ea41 0105 	orr.w	r1, r1, r5
  400abe:	bd30      	pop	{r4, r5, pc}
  400ac0:	ea5f 0c4c 	movs.w	ip, ip, lsl #1
  400ac4:	4140      	adcs	r0, r0
  400ac6:	eb41 0101 	adc.w	r1, r1, r1
  400aca:	f411 1f80 	tst.w	r1, #1048576	; 0x100000
  400ace:	f1a4 0401 	sub.w	r4, r4, #1
  400ad2:	d1e9      	bne.n	400aa8 <__adddf3+0x10c>
  400ad4:	f091 0f00 	teq	r1, #0
  400ad8:	bf04      	itt	eq
  400ada:	4601      	moveq	r1, r0
  400adc:	2000      	moveq	r0, #0
  400ade:	fab1 f381 	clz	r3, r1
  400ae2:	bf08      	it	eq
  400ae4:	3320      	addeq	r3, #32
  400ae6:	f1a3 030b 	sub.w	r3, r3, #11
  400aea:	f1b3 0220 	subs.w	r2, r3, #32
  400aee:	da0c      	bge.n	400b0a <__adddf3+0x16e>
  400af0:	320c      	adds	r2, #12
  400af2:	dd08      	ble.n	400b06 <__adddf3+0x16a>
  400af4:	f102 0c14 	add.w	ip, r2, #20
  400af8:	f1c2 020c 	rsb	r2, r2, #12
  400afc:	fa01 f00c 	lsl.w	r0, r1, ip
  400b00:	fa21 f102 	lsr.w	r1, r1, r2
  400b04:	e00c      	b.n	400b20 <__adddf3+0x184>
  400b06:	f102 0214 	add.w	r2, r2, #20
  400b0a:	bfd8      	it	le
  400b0c:	f1c2 0c20 	rsble	ip, r2, #32
  400b10:	fa01 f102 	lsl.w	r1, r1, r2
  400b14:	fa20 fc0c 	lsr.w	ip, r0, ip
  400b18:	bfdc      	itt	le
  400b1a:	ea41 010c 	orrle.w	r1, r1, ip
  400b1e:	4090      	lslle	r0, r2
  400b20:	1ae4      	subs	r4, r4, r3
  400b22:	bfa2      	ittt	ge
  400b24:	eb01 5104 	addge.w	r1, r1, r4, lsl #20
  400b28:	4329      	orrge	r1, r5
  400b2a:	bd30      	popge	{r4, r5, pc}
  400b2c:	ea6f 0404 	mvn.w	r4, r4
  400b30:	3c1f      	subs	r4, #31
  400b32:	da1c      	bge.n	400b6e <__adddf3+0x1d2>
  400b34:	340c      	adds	r4, #12
  400b36:	dc0e      	bgt.n	400b56 <__adddf3+0x1ba>
  400b38:	f104 0414 	add.w	r4, r4, #20
  400b3c:	f1c4 0220 	rsb	r2, r4, #32
  400b40:	fa20 f004 	lsr.w	r0, r0, r4
  400b44:	fa01 f302 	lsl.w	r3, r1, r2
  400b48:	ea40 0003 	orr.w	r0, r0, r3
  400b4c:	fa21 f304 	lsr.w	r3, r1, r4
  400b50:	ea45 0103 	orr.w	r1, r5, r3
  400b54:	bd30      	pop	{r4, r5, pc}
  400b56:	f1c4 040c 	rsb	r4, r4, #12
  400b5a:	f1c4 0220 	rsb	r2, r4, #32
  400b5e:	fa20 f002 	lsr.w	r0, r0, r2
  400b62:	fa01 f304 	lsl.w	r3, r1, r4
  400b66:	ea40 0003 	orr.w	r0, r0, r3
  400b6a:	4629      	mov	r1, r5
  400b6c:	bd30      	pop	{r4, r5, pc}
  400b6e:	fa21 f004 	lsr.w	r0, r1, r4
  400b72:	4629      	mov	r1, r5
  400b74:	bd30      	pop	{r4, r5, pc}
  400b76:	f094 0f00 	teq	r4, #0
  400b7a:	f483 1380 	eor.w	r3, r3, #1048576	; 0x100000
  400b7e:	bf06      	itte	eq
  400b80:	f481 1180 	eoreq.w	r1, r1, #1048576	; 0x100000
  400b84:	3401      	addeq	r4, #1
  400b86:	3d01      	subne	r5, #1
  400b88:	e74e      	b.n	400a28 <__adddf3+0x8c>
  400b8a:	ea7f 5c64 	mvns.w	ip, r4, asr #21
  400b8e:	bf18      	it	ne
  400b90:	ea7f 5c65 	mvnsne.w	ip, r5, asr #21
  400b94:	d029      	beq.n	400bea <__adddf3+0x24e>
  400b96:	ea94 0f05 	teq	r4, r5
  400b9a:	bf08      	it	eq
  400b9c:	ea90 0f02 	teqeq	r0, r2
  400ba0:	d005      	beq.n	400bae <__adddf3+0x212>
  400ba2:	ea54 0c00 	orrs.w	ip, r4, r0
  400ba6:	bf04      	itt	eq
  400ba8:	4619      	moveq	r1, r3
  400baa:	4610      	moveq	r0, r2
  400bac:	bd30      	pop	{r4, r5, pc}
  400bae:	ea91 0f03 	teq	r1, r3
  400bb2:	bf1e      	ittt	ne
  400bb4:	2100      	movne	r1, #0
  400bb6:	2000      	movne	r0, #0
  400bb8:	bd30      	popne	{r4, r5, pc}
  400bba:	ea5f 5c54 	movs.w	ip, r4, lsr #21
  400bbe:	d105      	bne.n	400bcc <__adddf3+0x230>
  400bc0:	0040      	lsls	r0, r0, #1
  400bc2:	4149      	adcs	r1, r1
  400bc4:	bf28      	it	cs
  400bc6:	f041 4100 	orrcs.w	r1, r1, #2147483648	; 0x80000000
  400bca:	bd30      	pop	{r4, r5, pc}
  400bcc:	f514 0480 	adds.w	r4, r4, #4194304	; 0x400000
  400bd0:	bf3c      	itt	cc
  400bd2:	f501 1180 	addcc.w	r1, r1, #1048576	; 0x100000
  400bd6:	bd30      	popcc	{r4, r5, pc}
  400bd8:	f001 4500 	and.w	r5, r1, #2147483648	; 0x80000000
  400bdc:	f045 41fe 	orr.w	r1, r5, #2130706432	; 0x7f000000
  400be0:	f441 0170 	orr.w	r1, r1, #15728640	; 0xf00000
  400be4:	f04f 0000 	mov.w	r0, #0
  400be8:	bd30      	pop	{r4, r5, pc}
  400bea:	ea7f 5c64 	mvns.w	ip, r4, asr #21
  400bee:	bf1a      	itte	ne
  400bf0:	4619      	movne	r1, r3
  400bf2:	4610      	movne	r0, r2
  400bf4:	ea7f 5c65 	mvnseq.w	ip, r5, asr #21
  400bf8:	bf1c      	itt	ne
  400bfa:	460b      	movne	r3, r1
  400bfc:	4602      	movne	r2, r0
  400bfe:	ea50 3401 	orrs.w	r4, r0, r1, lsl #12
  400c02:	bf06      	itte	eq
  400c04:	ea52 3503 	orrseq.w	r5, r2, r3, lsl #12
  400c08:	ea91 0f03 	teqeq	r1, r3
  400c0c:	f441 2100 	orrne.w	r1, r1, #524288	; 0x80000
  400c10:	bd30      	pop	{r4, r5, pc}
  400c12:	bf00      	nop

00400c14 <__aeabi_ui2d>:
  400c14:	f090 0f00 	teq	r0, #0
  400c18:	bf04      	itt	eq
  400c1a:	2100      	moveq	r1, #0
  400c1c:	4770      	bxeq	lr
  400c1e:	b530      	push	{r4, r5, lr}
  400c20:	f44f 6480 	mov.w	r4, #1024	; 0x400
  400c24:	f104 0432 	add.w	r4, r4, #50	; 0x32
  400c28:	f04f 0500 	mov.w	r5, #0
  400c2c:	f04f 0100 	mov.w	r1, #0
  400c30:	e750      	b.n	400ad4 <__adddf3+0x138>
  400c32:	bf00      	nop

00400c34 <__aeabi_i2d>:
  400c34:	f090 0f00 	teq	r0, #0
  400c38:	bf04      	itt	eq
  400c3a:	2100      	moveq	r1, #0
  400c3c:	4770      	bxeq	lr
  400c3e:	b530      	push	{r4, r5, lr}
  400c40:	f44f 6480 	mov.w	r4, #1024	; 0x400
  400c44:	f104 0432 	add.w	r4, r4, #50	; 0x32
  400c48:	f010 4500 	ands.w	r5, r0, #2147483648	; 0x80000000
  400c4c:	bf48      	it	mi
  400c4e:	4240      	negmi	r0, r0
  400c50:	f04f 0100 	mov.w	r1, #0
  400c54:	e73e      	b.n	400ad4 <__adddf3+0x138>
  400c56:	bf00      	nop

00400c58 <__aeabi_f2d>:
  400c58:	0042      	lsls	r2, r0, #1
  400c5a:	ea4f 01e2 	mov.w	r1, r2, asr #3
  400c5e:	ea4f 0131 	mov.w	r1, r1, rrx
  400c62:	ea4f 7002 	mov.w	r0, r2, lsl #28
  400c66:	bf1f      	itttt	ne
  400c68:	f012 437f 	andsne.w	r3, r2, #4278190080	; 0xff000000
  400c6c:	f093 4f7f 	teqne	r3, #4278190080	; 0xff000000
  400c70:	f081 5160 	eorne.w	r1, r1, #939524096	; 0x38000000
  400c74:	4770      	bxne	lr
  400c76:	f092 0f00 	teq	r2, #0
  400c7a:	bf14      	ite	ne
  400c7c:	f093 4f7f 	teqne	r3, #4278190080	; 0xff000000
  400c80:	4770      	bxeq	lr
  400c82:	b530      	push	{r4, r5, lr}
  400c84:	f44f 7460 	mov.w	r4, #896	; 0x380
  400c88:	f001 4500 	and.w	r5, r1, #2147483648	; 0x80000000
  400c8c:	f021 4100 	bic.w	r1, r1, #2147483648	; 0x80000000
  400c90:	e720      	b.n	400ad4 <__adddf3+0x138>
  400c92:	bf00      	nop

00400c94 <__aeabi_ul2d>:
  400c94:	ea50 0201 	orrs.w	r2, r0, r1
  400c98:	bf08      	it	eq
  400c9a:	4770      	bxeq	lr
  400c9c:	b530      	push	{r4, r5, lr}
  400c9e:	f04f 0500 	mov.w	r5, #0
  400ca2:	e00a      	b.n	400cba <__aeabi_l2d+0x16>

00400ca4 <__aeabi_l2d>:
  400ca4:	ea50 0201 	orrs.w	r2, r0, r1
  400ca8:	bf08      	it	eq
  400caa:	4770      	bxeq	lr
  400cac:	b530      	push	{r4, r5, lr}
  400cae:	f011 4500 	ands.w	r5, r1, #2147483648	; 0x80000000
  400cb2:	d502      	bpl.n	400cba <__aeabi_l2d+0x16>
  400cb4:	4240      	negs	r0, r0
  400cb6:	eb61 0141 	sbc.w	r1, r1, r1, lsl #1
  400cba:	f44f 6480 	mov.w	r4, #1024	; 0x400
  400cbe:	f104 0432 	add.w	r4, r4, #50	; 0x32
  400cc2:	ea5f 5c91 	movs.w	ip, r1, lsr #22
  400cc6:	f43f aedc 	beq.w	400a82 <__adddf3+0xe6>
  400cca:	f04f 0203 	mov.w	r2, #3
  400cce:	ea5f 0cdc 	movs.w	ip, ip, lsr #3
  400cd2:	bf18      	it	ne
  400cd4:	3203      	addne	r2, #3
  400cd6:	ea5f 0cdc 	movs.w	ip, ip, lsr #3
  400cda:	bf18      	it	ne
  400cdc:	3203      	addne	r2, #3
  400cde:	eb02 02dc 	add.w	r2, r2, ip, lsr #3
  400ce2:	f1c2 0320 	rsb	r3, r2, #32
  400ce6:	fa00 fc03 	lsl.w	ip, r0, r3
  400cea:	fa20 f002 	lsr.w	r0, r0, r2
  400cee:	fa01 fe03 	lsl.w	lr, r1, r3
  400cf2:	ea40 000e 	orr.w	r0, r0, lr
  400cf6:	fa21 f102 	lsr.w	r1, r1, r2
  400cfa:	4414      	add	r4, r2
  400cfc:	e6c1      	b.n	400a82 <__adddf3+0xe6>
  400cfe:	bf00      	nop

00400d00 <__aeabi_dmul>:
  400d00:	b570      	push	{r4, r5, r6, lr}
  400d02:	f04f 0cff 	mov.w	ip, #255	; 0xff
  400d06:	f44c 6ce0 	orr.w	ip, ip, #1792	; 0x700
  400d0a:	ea1c 5411 	ands.w	r4, ip, r1, lsr #20
  400d0e:	bf1d      	ittte	ne
  400d10:	ea1c 5513 	andsne.w	r5, ip, r3, lsr #20
  400d14:	ea94 0f0c 	teqne	r4, ip
  400d18:	ea95 0f0c 	teqne	r5, ip
  400d1c:	f000 f8de 	bleq	400edc <__aeabi_dmul+0x1dc>
  400d20:	442c      	add	r4, r5
  400d22:	ea81 0603 	eor.w	r6, r1, r3
  400d26:	ea21 514c 	bic.w	r1, r1, ip, lsl #21
  400d2a:	ea23 534c 	bic.w	r3, r3, ip, lsl #21
  400d2e:	ea50 3501 	orrs.w	r5, r0, r1, lsl #12
  400d32:	bf18      	it	ne
  400d34:	ea52 3503 	orrsne.w	r5, r2, r3, lsl #12
  400d38:	f441 1180 	orr.w	r1, r1, #1048576	; 0x100000
  400d3c:	f443 1380 	orr.w	r3, r3, #1048576	; 0x100000
  400d40:	d038      	beq.n	400db4 <__aeabi_dmul+0xb4>
  400d42:	fba0 ce02 	umull	ip, lr, r0, r2
  400d46:	f04f 0500 	mov.w	r5, #0
  400d4a:	fbe1 e502 	umlal	lr, r5, r1, r2
  400d4e:	f006 4200 	and.w	r2, r6, #2147483648	; 0x80000000
  400d52:	fbe0 e503 	umlal	lr, r5, r0, r3
  400d56:	f04f 0600 	mov.w	r6, #0
  400d5a:	fbe1 5603 	umlal	r5, r6, r1, r3
  400d5e:	f09c 0f00 	teq	ip, #0
  400d62:	bf18      	it	ne
  400d64:	f04e 0e01 	orrne.w	lr, lr, #1
  400d68:	f1a4 04ff 	sub.w	r4, r4, #255	; 0xff
  400d6c:	f5b6 7f00 	cmp.w	r6, #512	; 0x200
  400d70:	f564 7440 	sbc.w	r4, r4, #768	; 0x300
  400d74:	d204      	bcs.n	400d80 <__aeabi_dmul+0x80>
  400d76:	ea5f 0e4e 	movs.w	lr, lr, lsl #1
  400d7a:	416d      	adcs	r5, r5
  400d7c:	eb46 0606 	adc.w	r6, r6, r6
  400d80:	ea42 21c6 	orr.w	r1, r2, r6, lsl #11
  400d84:	ea41 5155 	orr.w	r1, r1, r5, lsr #21
  400d88:	ea4f 20c5 	mov.w	r0, r5, lsl #11
  400d8c:	ea40 505e 	orr.w	r0, r0, lr, lsr #21
  400d90:	ea4f 2ece 	mov.w	lr, lr, lsl #11
  400d94:	f1b4 0cfd 	subs.w	ip, r4, #253	; 0xfd
  400d98:	bf88      	it	hi
  400d9a:	f5bc 6fe0 	cmphi.w	ip, #1792	; 0x700
  400d9e:	d81e      	bhi.n	400dde <__aeabi_dmul+0xde>
  400da0:	f1be 4f00 	cmp.w	lr, #2147483648	; 0x80000000
  400da4:	bf08      	it	eq
  400da6:	ea5f 0e50 	movseq.w	lr, r0, lsr #1
  400daa:	f150 0000 	adcs.w	r0, r0, #0
  400dae:	eb41 5104 	adc.w	r1, r1, r4, lsl #20
  400db2:	bd70      	pop	{r4, r5, r6, pc}
  400db4:	f006 4600 	and.w	r6, r6, #2147483648	; 0x80000000
  400db8:	ea46 0101 	orr.w	r1, r6, r1
  400dbc:	ea40 0002 	orr.w	r0, r0, r2
  400dc0:	ea81 0103 	eor.w	r1, r1, r3
  400dc4:	ebb4 045c 	subs.w	r4, r4, ip, lsr #1
  400dc8:	bfc2      	ittt	gt
  400dca:	ebd4 050c 	rsbsgt	r5, r4, ip
  400dce:	ea41 5104 	orrgt.w	r1, r1, r4, lsl #20
  400dd2:	bd70      	popgt	{r4, r5, r6, pc}
  400dd4:	f441 1180 	orr.w	r1, r1, #1048576	; 0x100000
  400dd8:	f04f 0e00 	mov.w	lr, #0
  400ddc:	3c01      	subs	r4, #1
  400dde:	f300 80ab 	bgt.w	400f38 <__aeabi_dmul+0x238>
  400de2:	f114 0f36 	cmn.w	r4, #54	; 0x36
  400de6:	bfde      	ittt	le
  400de8:	2000      	movle	r0, #0
  400dea:	f001 4100 	andle.w	r1, r1, #2147483648	; 0x80000000
  400dee:	bd70      	pople	{r4, r5, r6, pc}
  400df0:	f1c4 0400 	rsb	r4, r4, #0
  400df4:	3c20      	subs	r4, #32
  400df6:	da35      	bge.n	400e64 <__aeabi_dmul+0x164>
  400df8:	340c      	adds	r4, #12
  400dfa:	dc1b      	bgt.n	400e34 <__aeabi_dmul+0x134>
  400dfc:	f104 0414 	add.w	r4, r4, #20
  400e00:	f1c4 0520 	rsb	r5, r4, #32
  400e04:	fa00 f305 	lsl.w	r3, r0, r5
  400e08:	fa20 f004 	lsr.w	r0, r0, r4
  400e0c:	fa01 f205 	lsl.w	r2, r1, r5
  400e10:	ea40 0002 	orr.w	r0, r0, r2
  400e14:	f001 4200 	and.w	r2, r1, #2147483648	; 0x80000000
  400e18:	f021 4100 	bic.w	r1, r1, #2147483648	; 0x80000000
  400e1c:	eb10 70d3 	adds.w	r0, r0, r3, lsr #31
  400e20:	fa21 f604 	lsr.w	r6, r1, r4
  400e24:	eb42 0106 	adc.w	r1, r2, r6
  400e28:	ea5e 0e43 	orrs.w	lr, lr, r3, lsl #1
  400e2c:	bf08      	it	eq
  400e2e:	ea20 70d3 	biceq.w	r0, r0, r3, lsr #31
  400e32:	bd70      	pop	{r4, r5, r6, pc}
  400e34:	f1c4 040c 	rsb	r4, r4, #12
  400e38:	f1c4 0520 	rsb	r5, r4, #32
  400e3c:	fa00 f304 	lsl.w	r3, r0, r4
  400e40:	fa20 f005 	lsr.w	r0, r0, r5
  400e44:	fa01 f204 	lsl.w	r2, r1, r4
  400e48:	ea40 0002 	orr.w	r0, r0, r2
  400e4c:	f001 4100 	and.w	r1, r1, #2147483648	; 0x80000000
  400e50:	eb10 70d3 	adds.w	r0, r0, r3, lsr #31
  400e54:	f141 0100 	adc.w	r1, r1, #0
  400e58:	ea5e 0e43 	orrs.w	lr, lr, r3, lsl #1
  400e5c:	bf08      	it	eq
  400e5e:	ea20 70d3 	biceq.w	r0, r0, r3, lsr #31
  400e62:	bd70      	pop	{r4, r5, r6, pc}
  400e64:	f1c4 0520 	rsb	r5, r4, #32
  400e68:	fa00 f205 	lsl.w	r2, r0, r5
  400e6c:	ea4e 0e02 	orr.w	lr, lr, r2
  400e70:	fa20 f304 	lsr.w	r3, r0, r4
  400e74:	fa01 f205 	lsl.w	r2, r1, r5
  400e78:	ea43 0302 	orr.w	r3, r3, r2
  400e7c:	fa21 f004 	lsr.w	r0, r1, r4
  400e80:	f001 4100 	and.w	r1, r1, #2147483648	; 0x80000000
  400e84:	fa21 f204 	lsr.w	r2, r1, r4
  400e88:	ea20 0002 	bic.w	r0, r0, r2
  400e8c:	eb00 70d3 	add.w	r0, r0, r3, lsr #31
  400e90:	ea5e 0e43 	orrs.w	lr, lr, r3, lsl #1
  400e94:	bf08      	it	eq
  400e96:	ea20 70d3 	biceq.w	r0, r0, r3, lsr #31
  400e9a:	bd70      	pop	{r4, r5, r6, pc}
  400e9c:	f094 0f00 	teq	r4, #0
  400ea0:	d10f      	bne.n	400ec2 <__aeabi_dmul+0x1c2>
  400ea2:	f001 4600 	and.w	r6, r1, #2147483648	; 0x80000000
  400ea6:	0040      	lsls	r0, r0, #1
  400ea8:	eb41 0101 	adc.w	r1, r1, r1
  400eac:	f411 1f80 	tst.w	r1, #1048576	; 0x100000
  400eb0:	bf08      	it	eq
  400eb2:	3c01      	subeq	r4, #1
  400eb4:	d0f7      	beq.n	400ea6 <__aeabi_dmul+0x1a6>
  400eb6:	ea41 0106 	orr.w	r1, r1, r6
  400eba:	f095 0f00 	teq	r5, #0
  400ebe:	bf18      	it	ne
  400ec0:	4770      	bxne	lr
  400ec2:	f003 4600 	and.w	r6, r3, #2147483648	; 0x80000000
  400ec6:	0052      	lsls	r2, r2, #1
  400ec8:	eb43 0303 	adc.w	r3, r3, r3
  400ecc:	f413 1f80 	tst.w	r3, #1048576	; 0x100000
  400ed0:	bf08      	it	eq
  400ed2:	3d01      	subeq	r5, #1
  400ed4:	d0f7      	beq.n	400ec6 <__aeabi_dmul+0x1c6>
  400ed6:	ea43 0306 	orr.w	r3, r3, r6
  400eda:	4770      	bx	lr
  400edc:	ea94 0f0c 	teq	r4, ip
  400ee0:	ea0c 5513 	and.w	r5, ip, r3, lsr #20
  400ee4:	bf18      	it	ne
  400ee6:	ea95 0f0c 	teqne	r5, ip
  400eea:	d00c      	beq.n	400f06 <__aeabi_dmul+0x206>
  400eec:	ea50 0641 	orrs.w	r6, r0, r1, lsl #1
  400ef0:	bf18      	it	ne
  400ef2:	ea52 0643 	orrsne.w	r6, r2, r3, lsl #1
  400ef6:	d1d1      	bne.n	400e9c <__aeabi_dmul+0x19c>
  400ef8:	ea81 0103 	eor.w	r1, r1, r3
  400efc:	f001 4100 	and.w	r1, r1, #2147483648	; 0x80000000
  400f00:	f04f 0000 	mov.w	r0, #0
  400f04:	bd70      	pop	{r4, r5, r6, pc}
  400f06:	ea50 0641 	orrs.w	r6, r0, r1, lsl #1
  400f0a:	bf06      	itte	eq
  400f0c:	4610      	moveq	r0, r2
  400f0e:	4619      	moveq	r1, r3
  400f10:	ea52 0643 	orrsne.w	r6, r2, r3, lsl #1
  400f14:	d019      	beq.n	400f4a <__aeabi_dmul+0x24a>
  400f16:	ea94 0f0c 	teq	r4, ip
  400f1a:	d102      	bne.n	400f22 <__aeabi_dmul+0x222>
  400f1c:	ea50 3601 	orrs.w	r6, r0, r1, lsl #12
  400f20:	d113      	bne.n	400f4a <__aeabi_dmul+0x24a>
  400f22:	ea95 0f0c 	teq	r5, ip
  400f26:	d105      	bne.n	400f34 <__aeabi_dmul+0x234>
  400f28:	ea52 3603 	orrs.w	r6, r2, r3, lsl #12
  400f2c:	bf1c      	itt	ne
  400f2e:	4610      	movne	r0, r2
  400f30:	4619      	movne	r1, r3
  400f32:	d10a      	bne.n	400f4a <__aeabi_dmul+0x24a>
  400f34:	ea81 0103 	eor.w	r1, r1, r3
  400f38:	f001 4100 	and.w	r1, r1, #2147483648	; 0x80000000
  400f3c:	f041 41fe 	orr.w	r1, r1, #2130706432	; 0x7f000000
  400f40:	f441 0170 	orr.w	r1, r1, #15728640	; 0xf00000
  400f44:	f04f 0000 	mov.w	r0, #0
  400f48:	bd70      	pop	{r4, r5, r6, pc}
  400f4a:	f041 41fe 	orr.w	r1, r1, #2130706432	; 0x7f000000
  400f4e:	f441 0178 	orr.w	r1, r1, #16252928	; 0xf80000
  400f52:	bd70      	pop	{r4, r5, r6, pc}

00400f54 <__aeabi_ddiv>:
  400f54:	b570      	push	{r4, r5, r6, lr}
  400f56:	f04f 0cff 	mov.w	ip, #255	; 0xff
  400f5a:	f44c 6ce0 	orr.w	ip, ip, #1792	; 0x700
  400f5e:	ea1c 5411 	ands.w	r4, ip, r1, lsr #20
  400f62:	bf1d      	ittte	ne
  400f64:	ea1c 5513 	andsne.w	r5, ip, r3, lsr #20
  400f68:	ea94 0f0c 	teqne	r4, ip
  400f6c:	ea95 0f0c 	teqne	r5, ip
  400f70:	f000 f8a7 	bleq	4010c2 <__aeabi_ddiv+0x16e>
  400f74:	eba4 0405 	sub.w	r4, r4, r5
  400f78:	ea81 0e03 	eor.w	lr, r1, r3
  400f7c:	ea52 3503 	orrs.w	r5, r2, r3, lsl #12
  400f80:	ea4f 3101 	mov.w	r1, r1, lsl #12
  400f84:	f000 8088 	beq.w	401098 <__aeabi_ddiv+0x144>
  400f88:	ea4f 3303 	mov.w	r3, r3, lsl #12
  400f8c:	f04f 5580 	mov.w	r5, #268435456	; 0x10000000
  400f90:	ea45 1313 	orr.w	r3, r5, r3, lsr #4
  400f94:	ea43 6312 	orr.w	r3, r3, r2, lsr #24
  400f98:	ea4f 2202 	mov.w	r2, r2, lsl #8
  400f9c:	ea45 1511 	orr.w	r5, r5, r1, lsr #4
  400fa0:	ea45 6510 	orr.w	r5, r5, r0, lsr #24
  400fa4:	ea4f 2600 	mov.w	r6, r0, lsl #8
  400fa8:	f00e 4100 	and.w	r1, lr, #2147483648	; 0x80000000
  400fac:	429d      	cmp	r5, r3
  400fae:	bf08      	it	eq
  400fb0:	4296      	cmpeq	r6, r2
  400fb2:	f144 04fd 	adc.w	r4, r4, #253	; 0xfd
  400fb6:	f504 7440 	add.w	r4, r4, #768	; 0x300
  400fba:	d202      	bcs.n	400fc2 <__aeabi_ddiv+0x6e>
  400fbc:	085b      	lsrs	r3, r3, #1
  400fbe:	ea4f 0232 	mov.w	r2, r2, rrx
  400fc2:	1ab6      	subs	r6, r6, r2
  400fc4:	eb65 0503 	sbc.w	r5, r5, r3
  400fc8:	085b      	lsrs	r3, r3, #1
  400fca:	ea4f 0232 	mov.w	r2, r2, rrx
  400fce:	f44f 1080 	mov.w	r0, #1048576	; 0x100000
  400fd2:	f44f 2c00 	mov.w	ip, #524288	; 0x80000
  400fd6:	ebb6 0e02 	subs.w	lr, r6, r2
  400fda:	eb75 0e03 	sbcs.w	lr, r5, r3
  400fde:	bf22      	ittt	cs
  400fe0:	1ab6      	subcs	r6, r6, r2
  400fe2:	4675      	movcs	r5, lr
  400fe4:	ea40 000c 	orrcs.w	r0, r0, ip
  400fe8:	085b      	lsrs	r3, r3, #1
  400fea:	ea4f 0232 	mov.w	r2, r2, rrx
  400fee:	ebb6 0e02 	subs.w	lr, r6, r2
  400ff2:	eb75 0e03 	sbcs.w	lr, r5, r3
  400ff6:	bf22      	ittt	cs
  400ff8:	1ab6      	subcs	r6, r6, r2
  400ffa:	4675      	movcs	r5, lr
  400ffc:	ea40 005c 	orrcs.w	r0, r0, ip, lsr #1
  401000:	085b      	lsrs	r3, r3, #1
  401002:	ea4f 0232 	mov.w	r2, r2, rrx
  401006:	ebb6 0e02 	subs.w	lr, r6, r2
  40100a:	eb75 0e03 	sbcs.w	lr, r5, r3
  40100e:	bf22      	ittt	cs
  401010:	1ab6      	subcs	r6, r6, r2
  401012:	4675      	movcs	r5, lr
  401014:	ea40 009c 	orrcs.w	r0, r0, ip, lsr #2
  401018:	085b      	lsrs	r3, r3, #1
  40101a:	ea4f 0232 	mov.w	r2, r2, rrx
  40101e:	ebb6 0e02 	subs.w	lr, r6, r2
  401022:	eb75 0e03 	sbcs.w	lr, r5, r3
  401026:	bf22      	ittt	cs
  401028:	1ab6      	subcs	r6, r6, r2
  40102a:	4675      	movcs	r5, lr
  40102c:	ea40 00dc 	orrcs.w	r0, r0, ip, lsr #3
  401030:	ea55 0e06 	orrs.w	lr, r5, r6
  401034:	d018      	beq.n	401068 <__aeabi_ddiv+0x114>
  401036:	ea4f 1505 	mov.w	r5, r5, lsl #4
  40103a:	ea45 7516 	orr.w	r5, r5, r6, lsr #28
  40103e:	ea4f 1606 	mov.w	r6, r6, lsl #4
  401042:	ea4f 03c3 	mov.w	r3, r3, lsl #3
  401046:	ea43 7352 	orr.w	r3, r3, r2, lsr #29
  40104a:	ea4f 02c2 	mov.w	r2, r2, lsl #3
  40104e:	ea5f 1c1c 	movs.w	ip, ip, lsr #4
  401052:	d1c0      	bne.n	400fd6 <__aeabi_ddiv+0x82>
  401054:	f411 1f80 	tst.w	r1, #1048576	; 0x100000
  401058:	d10b      	bne.n	401072 <__aeabi_ddiv+0x11e>
  40105a:	ea41 0100 	orr.w	r1, r1, r0
  40105e:	f04f 0000 	mov.w	r0, #0
  401062:	f04f 4c00 	mov.w	ip, #2147483648	; 0x80000000
  401066:	e7b6      	b.n	400fd6 <__aeabi_ddiv+0x82>
  401068:	f411 1f80 	tst.w	r1, #1048576	; 0x100000
  40106c:	bf04      	itt	eq
  40106e:	4301      	orreq	r1, r0
  401070:	2000      	moveq	r0, #0
  401072:	f1b4 0cfd 	subs.w	ip, r4, #253	; 0xfd
  401076:	bf88      	it	hi
  401078:	f5bc 6fe0 	cmphi.w	ip, #1792	; 0x700
  40107c:	f63f aeaf 	bhi.w	400dde <__aeabi_dmul+0xde>
  401080:	ebb5 0c03 	subs.w	ip, r5, r3
  401084:	bf04      	itt	eq
  401086:	ebb6 0c02 	subseq.w	ip, r6, r2
  40108a:	ea5f 0c50 	movseq.w	ip, r0, lsr #1
  40108e:	f150 0000 	adcs.w	r0, r0, #0
  401092:	eb41 5104 	adc.w	r1, r1, r4, lsl #20
  401096:	bd70      	pop	{r4, r5, r6, pc}
  401098:	f00e 4e00 	and.w	lr, lr, #2147483648	; 0x80000000
  40109c:	ea4e 3111 	orr.w	r1, lr, r1, lsr #12
  4010a0:	eb14 045c 	adds.w	r4, r4, ip, lsr #1
  4010a4:	bfc2      	ittt	gt
  4010a6:	ebd4 050c 	rsbsgt	r5, r4, ip
  4010aa:	ea41 5104 	orrgt.w	r1, r1, r4, lsl #20
  4010ae:	bd70      	popgt	{r4, r5, r6, pc}
  4010b0:	f441 1180 	orr.w	r1, r1, #1048576	; 0x100000
  4010b4:	f04f 0e00 	mov.w	lr, #0
  4010b8:	3c01      	subs	r4, #1
  4010ba:	e690      	b.n	400dde <__aeabi_dmul+0xde>
  4010bc:	ea45 0e06 	orr.w	lr, r5, r6
  4010c0:	e68d      	b.n	400dde <__aeabi_dmul+0xde>
  4010c2:	ea0c 5513 	and.w	r5, ip, r3, lsr #20
  4010c6:	ea94 0f0c 	teq	r4, ip
  4010ca:	bf08      	it	eq
  4010cc:	ea95 0f0c 	teqeq	r5, ip
  4010d0:	f43f af3b 	beq.w	400f4a <__aeabi_dmul+0x24a>
  4010d4:	ea94 0f0c 	teq	r4, ip
  4010d8:	d10a      	bne.n	4010f0 <__aeabi_ddiv+0x19c>
  4010da:	ea50 3401 	orrs.w	r4, r0, r1, lsl #12
  4010de:	f47f af34 	bne.w	400f4a <__aeabi_dmul+0x24a>
  4010e2:	ea95 0f0c 	teq	r5, ip
  4010e6:	f47f af25 	bne.w	400f34 <__aeabi_dmul+0x234>
  4010ea:	4610      	mov	r0, r2
  4010ec:	4619      	mov	r1, r3
  4010ee:	e72c      	b.n	400f4a <__aeabi_dmul+0x24a>
  4010f0:	ea95 0f0c 	teq	r5, ip
  4010f4:	d106      	bne.n	401104 <__aeabi_ddiv+0x1b0>
  4010f6:	ea52 3503 	orrs.w	r5, r2, r3, lsl #12
  4010fa:	f43f aefd 	beq.w	400ef8 <__aeabi_dmul+0x1f8>
  4010fe:	4610      	mov	r0, r2
  401100:	4619      	mov	r1, r3
  401102:	e722      	b.n	400f4a <__aeabi_dmul+0x24a>
  401104:	ea50 0641 	orrs.w	r6, r0, r1, lsl #1
  401108:	bf18      	it	ne
  40110a:	ea52 0643 	orrsne.w	r6, r2, r3, lsl #1
  40110e:	f47f aec5 	bne.w	400e9c <__aeabi_dmul+0x19c>
  401112:	ea50 0441 	orrs.w	r4, r0, r1, lsl #1
  401116:	f47f af0d 	bne.w	400f34 <__aeabi_dmul+0x234>
  40111a:	ea52 0543 	orrs.w	r5, r2, r3, lsl #1
  40111e:	f47f aeeb 	bne.w	400ef8 <__aeabi_dmul+0x1f8>
  401122:	e712      	b.n	400f4a <__aeabi_dmul+0x24a>

00401124 <__gedf2>:
  401124:	f04f 3cff 	mov.w	ip, #4294967295
  401128:	e006      	b.n	401138 <__cmpdf2+0x4>
  40112a:	bf00      	nop

0040112c <__ledf2>:
  40112c:	f04f 0c01 	mov.w	ip, #1
  401130:	e002      	b.n	401138 <__cmpdf2+0x4>
  401132:	bf00      	nop

00401134 <__cmpdf2>:
  401134:	f04f 0c01 	mov.w	ip, #1
  401138:	f84d cd04 	str.w	ip, [sp, #-4]!
  40113c:	ea4f 0c41 	mov.w	ip, r1, lsl #1
  401140:	ea7f 5c6c 	mvns.w	ip, ip, asr #21
  401144:	ea4f 0c43 	mov.w	ip, r3, lsl #1
  401148:	bf18      	it	ne
  40114a:	ea7f 5c6c 	mvnsne.w	ip, ip, asr #21
  40114e:	d01b      	beq.n	401188 <__cmpdf2+0x54>
  401150:	b001      	add	sp, #4
  401152:	ea50 0c41 	orrs.w	ip, r0, r1, lsl #1
  401156:	bf0c      	ite	eq
  401158:	ea52 0c43 	orrseq.w	ip, r2, r3, lsl #1
  40115c:	ea91 0f03 	teqne	r1, r3
  401160:	bf02      	ittt	eq
  401162:	ea90 0f02 	teqeq	r0, r2
  401166:	2000      	moveq	r0, #0
  401168:	4770      	bxeq	lr
  40116a:	f110 0f00 	cmn.w	r0, #0
  40116e:	ea91 0f03 	teq	r1, r3
  401172:	bf58      	it	pl
  401174:	4299      	cmppl	r1, r3
  401176:	bf08      	it	eq
  401178:	4290      	cmpeq	r0, r2
  40117a:	bf2c      	ite	cs
  40117c:	17d8      	asrcs	r0, r3, #31
  40117e:	ea6f 70e3 	mvncc.w	r0, r3, asr #31
  401182:	f040 0001 	orr.w	r0, r0, #1
  401186:	4770      	bx	lr
  401188:	ea4f 0c41 	mov.w	ip, r1, lsl #1
  40118c:	ea7f 5c6c 	mvns.w	ip, ip, asr #21
  401190:	d102      	bne.n	401198 <__cmpdf2+0x64>
  401192:	ea50 3c01 	orrs.w	ip, r0, r1, lsl #12
  401196:	d107      	bne.n	4011a8 <__cmpdf2+0x74>
  401198:	ea4f 0c43 	mov.w	ip, r3, lsl #1
  40119c:	ea7f 5c6c 	mvns.w	ip, ip, asr #21
  4011a0:	d1d6      	bne.n	401150 <__cmpdf2+0x1c>
  4011a2:	ea52 3c03 	orrs.w	ip, r2, r3, lsl #12
  4011a6:	d0d3      	beq.n	401150 <__cmpdf2+0x1c>
  4011a8:	f85d 0b04 	ldr.w	r0, [sp], #4
  4011ac:	4770      	bx	lr
  4011ae:	bf00      	nop

004011b0 <__aeabi_cdrcmple>:
  4011b0:	4684      	mov	ip, r0
  4011b2:	4610      	mov	r0, r2
  4011b4:	4662      	mov	r2, ip
  4011b6:	468c      	mov	ip, r1
  4011b8:	4619      	mov	r1, r3
  4011ba:	4663      	mov	r3, ip
  4011bc:	e000      	b.n	4011c0 <__aeabi_cdcmpeq>
  4011be:	bf00      	nop

004011c0 <__aeabi_cdcmpeq>:
  4011c0:	b501      	push	{r0, lr}
  4011c2:	f7ff ffb7 	bl	401134 <__cmpdf2>
  4011c6:	2800      	cmp	r0, #0
  4011c8:	bf48      	it	mi
  4011ca:	f110 0f00 	cmnmi.w	r0, #0
  4011ce:	bd01      	pop	{r0, pc}

004011d0 <__aeabi_dcmpeq>:
  4011d0:	f84d ed08 	str.w	lr, [sp, #-8]!
  4011d4:	f7ff fff4 	bl	4011c0 <__aeabi_cdcmpeq>
  4011d8:	bf0c      	ite	eq
  4011da:	2001      	moveq	r0, #1
  4011dc:	2000      	movne	r0, #0
  4011de:	f85d fb08 	ldr.w	pc, [sp], #8
  4011e2:	bf00      	nop

004011e4 <__aeabi_dcmplt>:
  4011e4:	f84d ed08 	str.w	lr, [sp, #-8]!
  4011e8:	f7ff ffea 	bl	4011c0 <__aeabi_cdcmpeq>
  4011ec:	bf34      	ite	cc
  4011ee:	2001      	movcc	r0, #1
  4011f0:	2000      	movcs	r0, #0
  4011f2:	f85d fb08 	ldr.w	pc, [sp], #8
  4011f6:	bf00      	nop

004011f8 <__aeabi_dcmple>:
  4011f8:	f84d ed08 	str.w	lr, [sp, #-8]!
  4011fc:	f7ff ffe0 	bl	4011c0 <__aeabi_cdcmpeq>
  401200:	bf94      	ite	ls
  401202:	2001      	movls	r0, #1
  401204:	2000      	movhi	r0, #0
  401206:	f85d fb08 	ldr.w	pc, [sp], #8
  40120a:	bf00      	nop

0040120c <__aeabi_dcmpge>:
  40120c:	f84d ed08 	str.w	lr, [sp, #-8]!
  401210:	f7ff ffce 	bl	4011b0 <__aeabi_cdrcmple>
  401214:	bf94      	ite	ls
  401216:	2001      	movls	r0, #1
  401218:	2000      	movhi	r0, #0
  40121a:	f85d fb08 	ldr.w	pc, [sp], #8
  40121e:	bf00      	nop

00401220 <__aeabi_dcmpgt>:
  401220:	f84d ed08 	str.w	lr, [sp, #-8]!
  401224:	f7ff ffc4 	bl	4011b0 <__aeabi_cdrcmple>
  401228:	bf34      	ite	cc
  40122a:	2001      	movcc	r0, #1
  40122c:	2000      	movcs	r0, #0
  40122e:	f85d fb08 	ldr.w	pc, [sp], #8
  401232:	bf00      	nop

00401234 <__aeabi_uldivmod>:
  401234:	b953      	cbnz	r3, 40124c <__aeabi_uldivmod+0x18>
  401236:	b94a      	cbnz	r2, 40124c <__aeabi_uldivmod+0x18>
  401238:	2900      	cmp	r1, #0
  40123a:	bf08      	it	eq
  40123c:	2800      	cmpeq	r0, #0
  40123e:	bf1c      	itt	ne
  401240:	f04f 31ff 	movne.w	r1, #4294967295
  401244:	f04f 30ff 	movne.w	r0, #4294967295
  401248:	f000 b99e 	b.w	401588 <__aeabi_idiv0>
  40124c:	f1ad 0c08 	sub.w	ip, sp, #8
  401250:	e96d ce04 	strd	ip, lr, [sp, #-16]!
  401254:	f000 f82a 	bl	4012ac <__udivmoddi4>
  401258:	f8dd e004 	ldr.w	lr, [sp, #4]
  40125c:	e9dd 2302 	ldrd	r2, r3, [sp, #8]
  401260:	b004      	add	sp, #16
  401262:	4770      	bx	lr

00401264 <__aeabi_d2ulz>:
  401264:	b5d0      	push	{r4, r6, r7, lr}
  401266:	2200      	movs	r2, #0
  401268:	4b0e      	ldr	r3, [pc, #56]	; (4012a4 <__aeabi_d2ulz+0x40>)
  40126a:	4606      	mov	r6, r0
  40126c:	460f      	mov	r7, r1
  40126e:	f7ff fd47 	bl	400d00 <__aeabi_dmul>
  401272:	f000 f98b 	bl	40158c <__aeabi_d2uiz>
  401276:	4604      	mov	r4, r0
  401278:	f7ff fccc 	bl	400c14 <__aeabi_ui2d>
  40127c:	2200      	movs	r2, #0
  40127e:	4b0a      	ldr	r3, [pc, #40]	; (4012a8 <__aeabi_d2ulz+0x44>)
  401280:	f7ff fd3e 	bl	400d00 <__aeabi_dmul>
  401284:	4602      	mov	r2, r0
  401286:	460b      	mov	r3, r1
  401288:	4630      	mov	r0, r6
  40128a:	4639      	mov	r1, r7
  40128c:	f7ff fb84 	bl	400998 <__aeabi_dsub>
  401290:	f000 f97c 	bl	40158c <__aeabi_d2uiz>
  401294:	4623      	mov	r3, r4
  401296:	2200      	movs	r2, #0
  401298:	ea42 0200 	orr.w	r2, r2, r0
  40129c:	4610      	mov	r0, r2
  40129e:	4619      	mov	r1, r3
  4012a0:	bdd0      	pop	{r4, r6, r7, pc}
  4012a2:	bf00      	nop
  4012a4:	3df00000 	.word	0x3df00000
  4012a8:	41f00000 	.word	0x41f00000

004012ac <__udivmoddi4>:
  4012ac:	e92d 47f0 	stmdb	sp!, {r4, r5, r6, r7, r8, r9, sl, lr}
  4012b0:	468c      	mov	ip, r1
  4012b2:	460d      	mov	r5, r1
  4012b4:	4604      	mov	r4, r0
  4012b6:	9e08      	ldr	r6, [sp, #32]
  4012b8:	2b00      	cmp	r3, #0
  4012ba:	d151      	bne.n	401360 <__udivmoddi4+0xb4>
  4012bc:	428a      	cmp	r2, r1
  4012be:	4617      	mov	r7, r2
  4012c0:	d96d      	bls.n	40139e <__udivmoddi4+0xf2>
  4012c2:	fab2 fe82 	clz	lr, r2
  4012c6:	f1be 0f00 	cmp.w	lr, #0
  4012ca:	d00b      	beq.n	4012e4 <__udivmoddi4+0x38>
  4012cc:	f1ce 0c20 	rsb	ip, lr, #32
  4012d0:	fa01 f50e 	lsl.w	r5, r1, lr
  4012d4:	fa20 fc0c 	lsr.w	ip, r0, ip
  4012d8:	fa02 f70e 	lsl.w	r7, r2, lr
  4012dc:	ea4c 0c05 	orr.w	ip, ip, r5
  4012e0:	fa00 f40e 	lsl.w	r4, r0, lr
  4012e4:	ea4f 4a17 	mov.w	sl, r7, lsr #16
  4012e8:	0c25      	lsrs	r5, r4, #16
  4012ea:	fbbc f8fa 	udiv	r8, ip, sl
  4012ee:	fa1f f987 	uxth.w	r9, r7
  4012f2:	fb0a cc18 	mls	ip, sl, r8, ip
  4012f6:	ea45 450c 	orr.w	r5, r5, ip, lsl #16
  4012fa:	fb08 f309 	mul.w	r3, r8, r9
  4012fe:	42ab      	cmp	r3, r5
  401300:	d90a      	bls.n	401318 <__udivmoddi4+0x6c>
  401302:	19ed      	adds	r5, r5, r7
  401304:	f108 32ff 	add.w	r2, r8, #4294967295
  401308:	f080 8123 	bcs.w	401552 <__udivmoddi4+0x2a6>
  40130c:	42ab      	cmp	r3, r5
  40130e:	f240 8120 	bls.w	401552 <__udivmoddi4+0x2a6>
  401312:	f1a8 0802 	sub.w	r8, r8, #2
  401316:	443d      	add	r5, r7
  401318:	1aed      	subs	r5, r5, r3
  40131a:	b2a4      	uxth	r4, r4
  40131c:	fbb5 f0fa 	udiv	r0, r5, sl
  401320:	fb0a 5510 	mls	r5, sl, r0, r5
  401324:	ea44 4405 	orr.w	r4, r4, r5, lsl #16
  401328:	fb00 f909 	mul.w	r9, r0, r9
  40132c:	45a1      	cmp	r9, r4
  40132e:	d909      	bls.n	401344 <__udivmoddi4+0x98>
  401330:	19e4      	adds	r4, r4, r7
  401332:	f100 33ff 	add.w	r3, r0, #4294967295
  401336:	f080 810a 	bcs.w	40154e <__udivmoddi4+0x2a2>
  40133a:	45a1      	cmp	r9, r4
  40133c:	f240 8107 	bls.w	40154e <__udivmoddi4+0x2a2>
  401340:	3802      	subs	r0, #2
  401342:	443c      	add	r4, r7
  401344:	eba4 0409 	sub.w	r4, r4, r9
  401348:	ea40 4008 	orr.w	r0, r0, r8, lsl #16
  40134c:	2100      	movs	r1, #0
  40134e:	2e00      	cmp	r6, #0
  401350:	d061      	beq.n	401416 <__udivmoddi4+0x16a>
  401352:	fa24 f40e 	lsr.w	r4, r4, lr
  401356:	2300      	movs	r3, #0
  401358:	6034      	str	r4, [r6, #0]
  40135a:	6073      	str	r3, [r6, #4]
  40135c:	e8bd 87f0 	ldmia.w	sp!, {r4, r5, r6, r7, r8, r9, sl, pc}
  401360:	428b      	cmp	r3, r1
  401362:	d907      	bls.n	401374 <__udivmoddi4+0xc8>
  401364:	2e00      	cmp	r6, #0
  401366:	d054      	beq.n	401412 <__udivmoddi4+0x166>
  401368:	2100      	movs	r1, #0
  40136a:	e886 0021 	stmia.w	r6, {r0, r5}
  40136e:	4608      	mov	r0, r1
  401370:	e8bd 87f0 	ldmia.w	sp!, {r4, r5, r6, r7, r8, r9, sl, pc}
  401374:	fab3 f183 	clz	r1, r3
  401378:	2900      	cmp	r1, #0
  40137a:	f040 808e 	bne.w	40149a <__udivmoddi4+0x1ee>
  40137e:	42ab      	cmp	r3, r5
  401380:	d302      	bcc.n	401388 <__udivmoddi4+0xdc>
  401382:	4282      	cmp	r2, r0
  401384:	f200 80fa 	bhi.w	40157c <__udivmoddi4+0x2d0>
  401388:	1a84      	subs	r4, r0, r2
  40138a:	eb65 0503 	sbc.w	r5, r5, r3
  40138e:	2001      	movs	r0, #1
  401390:	46ac      	mov	ip, r5
  401392:	2e00      	cmp	r6, #0
  401394:	d03f      	beq.n	401416 <__udivmoddi4+0x16a>
  401396:	e886 1010 	stmia.w	r6, {r4, ip}
  40139a:	e8bd 87f0 	ldmia.w	sp!, {r4, r5, r6, r7, r8, r9, sl, pc}
  40139e:	b912      	cbnz	r2, 4013a6 <__udivmoddi4+0xfa>
  4013a0:	2701      	movs	r7, #1
  4013a2:	fbb7 f7f2 	udiv	r7, r7, r2
  4013a6:	fab7 fe87 	clz	lr, r7
  4013aa:	f1be 0f00 	cmp.w	lr, #0
  4013ae:	d134      	bne.n	40141a <__udivmoddi4+0x16e>
  4013b0:	1beb      	subs	r3, r5, r7
  4013b2:	0c3a      	lsrs	r2, r7, #16
  4013b4:	fa1f fc87 	uxth.w	ip, r7
  4013b8:	2101      	movs	r1, #1
  4013ba:	fbb3 f8f2 	udiv	r8, r3, r2
  4013be:	0c25      	lsrs	r5, r4, #16
  4013c0:	fb02 3318 	mls	r3, r2, r8, r3
  4013c4:	ea45 4503 	orr.w	r5, r5, r3, lsl #16
  4013c8:	fb0c f308 	mul.w	r3, ip, r8
  4013cc:	42ab      	cmp	r3, r5
  4013ce:	d907      	bls.n	4013e0 <__udivmoddi4+0x134>
  4013d0:	19ed      	adds	r5, r5, r7
  4013d2:	f108 30ff 	add.w	r0, r8, #4294967295
  4013d6:	d202      	bcs.n	4013de <__udivmoddi4+0x132>
  4013d8:	42ab      	cmp	r3, r5
  4013da:	f200 80d1 	bhi.w	401580 <__udivmoddi4+0x2d4>
  4013de:	4680      	mov	r8, r0
  4013e0:	1aed      	subs	r5, r5, r3
  4013e2:	b2a3      	uxth	r3, r4
  4013e4:	fbb5 f0f2 	udiv	r0, r5, r2
  4013e8:	fb02 5510 	mls	r5, r2, r0, r5
  4013ec:	ea43 4405 	orr.w	r4, r3, r5, lsl #16
  4013f0:	fb0c fc00 	mul.w	ip, ip, r0
  4013f4:	45a4      	cmp	ip, r4
  4013f6:	d907      	bls.n	401408 <__udivmoddi4+0x15c>
  4013f8:	19e4      	adds	r4, r4, r7
  4013fa:	f100 33ff 	add.w	r3, r0, #4294967295
  4013fe:	d202      	bcs.n	401406 <__udivmoddi4+0x15a>
  401400:	45a4      	cmp	ip, r4
  401402:	f200 80b8 	bhi.w	401576 <__udivmoddi4+0x2ca>
  401406:	4618      	mov	r0, r3
  401408:	eba4 040c 	sub.w	r4, r4, ip
  40140c:	ea40 4008 	orr.w	r0, r0, r8, lsl #16
  401410:	e79d      	b.n	40134e <__udivmoddi4+0xa2>
  401412:	4631      	mov	r1, r6
  401414:	4630      	mov	r0, r6
  401416:	e8bd 87f0 	ldmia.w	sp!, {r4, r5, r6, r7, r8, r9, sl, pc}
  40141a:	f1ce 0420 	rsb	r4, lr, #32
  40141e:	fa05 f30e 	lsl.w	r3, r5, lr
  401422:	fa07 f70e 	lsl.w	r7, r7, lr
  401426:	fa20 f804 	lsr.w	r8, r0, r4
  40142a:	0c3a      	lsrs	r2, r7, #16
  40142c:	fa25 f404 	lsr.w	r4, r5, r4
  401430:	ea48 0803 	orr.w	r8, r8, r3
  401434:	fbb4 f1f2 	udiv	r1, r4, r2
  401438:	ea4f 4518 	mov.w	r5, r8, lsr #16
  40143c:	fb02 4411 	mls	r4, r2, r1, r4
  401440:	fa1f fc87 	uxth.w	ip, r7
  401444:	ea45 4504 	orr.w	r5, r5, r4, lsl #16
  401448:	fb01 f30c 	mul.w	r3, r1, ip
  40144c:	42ab      	cmp	r3, r5
  40144e:	fa00 f40e 	lsl.w	r4, r0, lr
  401452:	d909      	bls.n	401468 <__udivmoddi4+0x1bc>
  401454:	19ed      	adds	r5, r5, r7
  401456:	f101 30ff 	add.w	r0, r1, #4294967295
  40145a:	f080 808a 	bcs.w	401572 <__udivmoddi4+0x2c6>
  40145e:	42ab      	cmp	r3, r5
  401460:	f240 8087 	bls.w	401572 <__udivmoddi4+0x2c6>
  401464:	3902      	subs	r1, #2
  401466:	443d      	add	r5, r7
  401468:	1aeb      	subs	r3, r5, r3
  40146a:	fa1f f588 	uxth.w	r5, r8
  40146e:	fbb3 f0f2 	udiv	r0, r3, r2
  401472:	fb02 3310 	mls	r3, r2, r0, r3
  401476:	ea45 4503 	orr.w	r5, r5, r3, lsl #16
  40147a:	fb00 f30c 	mul.w	r3, r0, ip
  40147e:	42ab      	cmp	r3, r5
  401480:	d907      	bls.n	401492 <__udivmoddi4+0x1e6>
  401482:	19ed      	adds	r5, r5, r7
  401484:	f100 38ff 	add.w	r8, r0, #4294967295
  401488:	d26f      	bcs.n	40156a <__udivmoddi4+0x2be>
  40148a:	42ab      	cmp	r3, r5
  40148c:	d96d      	bls.n	40156a <__udivmoddi4+0x2be>
  40148e:	3802      	subs	r0, #2
  401490:	443d      	add	r5, r7
  401492:	1aeb      	subs	r3, r5, r3
  401494:	ea40 4101 	orr.w	r1, r0, r1, lsl #16
  401498:	e78f      	b.n	4013ba <__udivmoddi4+0x10e>
  40149a:	f1c1 0720 	rsb	r7, r1, #32
  40149e:	fa22 f807 	lsr.w	r8, r2, r7
  4014a2:	408b      	lsls	r3, r1
  4014a4:	fa05 f401 	lsl.w	r4, r5, r1
  4014a8:	ea48 0303 	orr.w	r3, r8, r3
  4014ac:	fa20 fe07 	lsr.w	lr, r0, r7
  4014b0:	ea4f 4c13 	mov.w	ip, r3, lsr #16
  4014b4:	40fd      	lsrs	r5, r7
  4014b6:	ea4e 0e04 	orr.w	lr, lr, r4
  4014ba:	fbb5 f9fc 	udiv	r9, r5, ip
  4014be:	ea4f 441e 	mov.w	r4, lr, lsr #16
  4014c2:	fb0c 5519 	mls	r5, ip, r9, r5
  4014c6:	fa1f f883 	uxth.w	r8, r3
  4014ca:	ea44 4505 	orr.w	r5, r4, r5, lsl #16
  4014ce:	fb09 f408 	mul.w	r4, r9, r8
  4014d2:	42ac      	cmp	r4, r5
  4014d4:	fa02 f201 	lsl.w	r2, r2, r1
  4014d8:	fa00 fa01 	lsl.w	sl, r0, r1
  4014dc:	d908      	bls.n	4014f0 <__udivmoddi4+0x244>
  4014de:	18ed      	adds	r5, r5, r3
  4014e0:	f109 30ff 	add.w	r0, r9, #4294967295
  4014e4:	d243      	bcs.n	40156e <__udivmoddi4+0x2c2>
  4014e6:	42ac      	cmp	r4, r5
  4014e8:	d941      	bls.n	40156e <__udivmoddi4+0x2c2>
  4014ea:	f1a9 0902 	sub.w	r9, r9, #2
  4014ee:	441d      	add	r5, r3
  4014f0:	1b2d      	subs	r5, r5, r4
  4014f2:	fa1f fe8e 	uxth.w	lr, lr
  4014f6:	fbb5 f0fc 	udiv	r0, r5, ip
  4014fa:	fb0c 5510 	mls	r5, ip, r0, r5
  4014fe:	ea4e 4405 	orr.w	r4, lr, r5, lsl #16
  401502:	fb00 f808 	mul.w	r8, r0, r8
  401506:	45a0      	cmp	r8, r4
  401508:	d907      	bls.n	40151a <__udivmoddi4+0x26e>
  40150a:	18e4      	adds	r4, r4, r3
  40150c:	f100 35ff 	add.w	r5, r0, #4294967295
  401510:	d229      	bcs.n	401566 <__udivmoddi4+0x2ba>
  401512:	45a0      	cmp	r8, r4
  401514:	d927      	bls.n	401566 <__udivmoddi4+0x2ba>
  401516:	3802      	subs	r0, #2
  401518:	441c      	add	r4, r3
  40151a:	ea40 4009 	orr.w	r0, r0, r9, lsl #16
  40151e:	eba4 0408 	sub.w	r4, r4, r8
  401522:	fba0 8902 	umull	r8, r9, r0, r2
  401526:	454c      	cmp	r4, r9
  401528:	46c6      	mov	lr, r8
  40152a:	464d      	mov	r5, r9
  40152c:	d315      	bcc.n	40155a <__udivmoddi4+0x2ae>
  40152e:	d012      	beq.n	401556 <__udivmoddi4+0x2aa>
  401530:	b156      	cbz	r6, 401548 <__udivmoddi4+0x29c>
  401532:	ebba 030e 	subs.w	r3, sl, lr
  401536:	eb64 0405 	sbc.w	r4, r4, r5
  40153a:	fa04 f707 	lsl.w	r7, r4, r7
  40153e:	40cb      	lsrs	r3, r1
  401540:	431f      	orrs	r7, r3
  401542:	40cc      	lsrs	r4, r1
  401544:	6037      	str	r7, [r6, #0]
  401546:	6074      	str	r4, [r6, #4]
  401548:	2100      	movs	r1, #0
  40154a:	e8bd 87f0 	ldmia.w	sp!, {r4, r5, r6, r7, r8, r9, sl, pc}
  40154e:	4618      	mov	r0, r3
  401550:	e6f8      	b.n	401344 <__udivmoddi4+0x98>
  401552:	4690      	mov	r8, r2
  401554:	e6e0      	b.n	401318 <__udivmoddi4+0x6c>
  401556:	45c2      	cmp	sl, r8
  401558:	d2ea      	bcs.n	401530 <__udivmoddi4+0x284>
  40155a:	ebb8 0e02 	subs.w	lr, r8, r2
  40155e:	eb69 0503 	sbc.w	r5, r9, r3
  401562:	3801      	subs	r0, #1
  401564:	e7e4      	b.n	401530 <__udivmoddi4+0x284>
  401566:	4628      	mov	r0, r5
  401568:	e7d7      	b.n	40151a <__udivmoddi4+0x26e>
  40156a:	4640      	mov	r0, r8
  40156c:	e791      	b.n	401492 <__udivmoddi4+0x1e6>
  40156e:	4681      	mov	r9, r0
  401570:	e7be      	b.n	4014f0 <__udivmoddi4+0x244>
  401572:	4601      	mov	r1, r0
  401574:	e778      	b.n	401468 <__udivmoddi4+0x1bc>
  401576:	3802      	subs	r0, #2
  401578:	443c      	add	r4, r7
  40157a:	e745      	b.n	401408 <__udivmoddi4+0x15c>
  40157c:	4608      	mov	r0, r1
  40157e:	e708      	b.n	401392 <__udivmoddi4+0xe6>
  401580:	f1a8 0802 	sub.w	r8, r8, #2
  401584:	443d      	add	r5, r7
  401586:	e72b      	b.n	4013e0 <__udivmoddi4+0x134>

00401588 <__aeabi_idiv0>:
  401588:	4770      	bx	lr
  40158a:	bf00      	nop

0040158c <__aeabi_d2uiz>:
  40158c:	004a      	lsls	r2, r1, #1
  40158e:	d211      	bcs.n	4015b4 <__aeabi_d2uiz+0x28>
  401590:	f512 1200 	adds.w	r2, r2, #2097152	; 0x200000
  401594:	d211      	bcs.n	4015ba <__aeabi_d2uiz+0x2e>
  401596:	d50d      	bpl.n	4015b4 <__aeabi_d2uiz+0x28>
  401598:	f46f 7378 	mvn.w	r3, #992	; 0x3e0
  40159c:	ebb3 5262 	subs.w	r2, r3, r2, asr #21
  4015a0:	d40e      	bmi.n	4015c0 <__aeabi_d2uiz+0x34>
  4015a2:	ea4f 23c1 	mov.w	r3, r1, lsl #11
  4015a6:	f043 4300 	orr.w	r3, r3, #2147483648	; 0x80000000
  4015aa:	ea43 5350 	orr.w	r3, r3, r0, lsr #21
  4015ae:	fa23 f002 	lsr.w	r0, r3, r2
  4015b2:	4770      	bx	lr
  4015b4:	f04f 0000 	mov.w	r0, #0
  4015b8:	4770      	bx	lr
  4015ba:	ea50 3001 	orrs.w	r0, r0, r1, lsl #12
  4015be:	d102      	bne.n	4015c6 <__aeabi_d2uiz+0x3a>
  4015c0:	f04f 30ff 	mov.w	r0, #4294967295
  4015c4:	4770      	bx	lr
  4015c6:	f04f 0000 	mov.w	r0, #0
  4015ca:	4770      	bx	lr

004015cc <__libc_init_array>:
  4015cc:	b570      	push	{r4, r5, r6, lr}
  4015ce:	4e0f      	ldr	r6, [pc, #60]	; (40160c <__libc_init_array+0x40>)
  4015d0:	4d0f      	ldr	r5, [pc, #60]	; (401610 <__libc_init_array+0x44>)
  4015d2:	1b76      	subs	r6, r6, r5
  4015d4:	10b6      	asrs	r6, r6, #2
  4015d6:	bf18      	it	ne
  4015d8:	2400      	movne	r4, #0
  4015da:	d005      	beq.n	4015e8 <__libc_init_array+0x1c>
  4015dc:	3401      	adds	r4, #1
  4015de:	f855 3b04 	ldr.w	r3, [r5], #4
  4015e2:	4798      	blx	r3
  4015e4:	42a6      	cmp	r6, r4
  4015e6:	d1f9      	bne.n	4015dc <__libc_init_array+0x10>
  4015e8:	4e0a      	ldr	r6, [pc, #40]	; (401614 <__libc_init_array+0x48>)
  4015ea:	4d0b      	ldr	r5, [pc, #44]	; (401618 <__libc_init_array+0x4c>)
  4015ec:	1b76      	subs	r6, r6, r5
  4015ee:	f000 f8a7 	bl	401740 <_init>
  4015f2:	10b6      	asrs	r6, r6, #2
  4015f4:	bf18      	it	ne
  4015f6:	2400      	movne	r4, #0
  4015f8:	d006      	beq.n	401608 <__libc_init_array+0x3c>
  4015fa:	3401      	adds	r4, #1
  4015fc:	f855 3b04 	ldr.w	r3, [r5], #4
  401600:	4798      	blx	r3
  401602:	42a6      	cmp	r6, r4
  401604:	d1f9      	bne.n	4015fa <__libc_init_array+0x2e>
  401606:	bd70      	pop	{r4, r5, r6, pc}
  401608:	bd70      	pop	{r4, r5, r6, pc}
  40160a:	bf00      	nop
  40160c:	0040174c 	.word	0x0040174c
  401610:	0040174c 	.word	0x0040174c
  401614:	00401754 	.word	0x00401754
  401618:	0040174c 	.word	0x0040174c

0040161c <register_fini>:
  40161c:	4b02      	ldr	r3, [pc, #8]	; (401628 <register_fini+0xc>)
  40161e:	b113      	cbz	r3, 401626 <register_fini+0xa>
  401620:	4802      	ldr	r0, [pc, #8]	; (40162c <register_fini+0x10>)
  401622:	f000 b805 	b.w	401630 <atexit>
  401626:	4770      	bx	lr
  401628:	00000000 	.word	0x00000000
  40162c:	0040163d 	.word	0x0040163d

00401630 <atexit>:
  401630:	2300      	movs	r3, #0
  401632:	4601      	mov	r1, r0
  401634:	461a      	mov	r2, r3
  401636:	4618      	mov	r0, r3
  401638:	f000 b81e 	b.w	401678 <__register_exitproc>

0040163c <__libc_fini_array>:
  40163c:	b538      	push	{r3, r4, r5, lr}
  40163e:	4c0a      	ldr	r4, [pc, #40]	; (401668 <__libc_fini_array+0x2c>)
  401640:	4d0a      	ldr	r5, [pc, #40]	; (40166c <__libc_fini_array+0x30>)
  401642:	1b64      	subs	r4, r4, r5
  401644:	10a4      	asrs	r4, r4, #2
  401646:	d00a      	beq.n	40165e <__libc_fini_array+0x22>
  401648:	f104 4380 	add.w	r3, r4, #1073741824	; 0x40000000
  40164c:	3b01      	subs	r3, #1
  40164e:	eb05 0583 	add.w	r5, r5, r3, lsl #2
  401652:	3c01      	subs	r4, #1
  401654:	f855 3904 	ldr.w	r3, [r5], #-4
  401658:	4798      	blx	r3
  40165a:	2c00      	cmp	r4, #0
  40165c:	d1f9      	bne.n	401652 <__libc_fini_array+0x16>
  40165e:	e8bd 4038 	ldmia.w	sp!, {r3, r4, r5, lr}
  401662:	f000 b877 	b.w	401754 <_fini>
  401666:	bf00      	nop
  401668:	00401764 	.word	0x00401764
  40166c:	00401760 	.word	0x00401760

00401670 <__retarget_lock_acquire_recursive>:
  401670:	4770      	bx	lr
  401672:	bf00      	nop

00401674 <__retarget_lock_release_recursive>:
  401674:	4770      	bx	lr
  401676:	bf00      	nop

00401678 <__register_exitproc>:
  401678:	e92d 43f8 	stmdb	sp!, {r3, r4, r5, r6, r7, r8, r9, lr}
  40167c:	4d2c      	ldr	r5, [pc, #176]	; (401730 <__register_exitproc+0xb8>)
  40167e:	4606      	mov	r6, r0
  401680:	6828      	ldr	r0, [r5, #0]
  401682:	4698      	mov	r8, r3
  401684:	460f      	mov	r7, r1
  401686:	4691      	mov	r9, r2
  401688:	f7ff fff2 	bl	401670 <__retarget_lock_acquire_recursive>
  40168c:	4b29      	ldr	r3, [pc, #164]	; (401734 <__register_exitproc+0xbc>)
  40168e:	681c      	ldr	r4, [r3, #0]
  401690:	f8d4 3148 	ldr.w	r3, [r4, #328]	; 0x148
  401694:	2b00      	cmp	r3, #0
  401696:	d03e      	beq.n	401716 <__register_exitproc+0x9e>
  401698:	685a      	ldr	r2, [r3, #4]
  40169a:	2a1f      	cmp	r2, #31
  40169c:	dc1c      	bgt.n	4016d8 <__register_exitproc+0x60>
  40169e:	f102 0e01 	add.w	lr, r2, #1
  4016a2:	b176      	cbz	r6, 4016c2 <__register_exitproc+0x4a>
  4016a4:	eb03 0182 	add.w	r1, r3, r2, lsl #2
  4016a8:	2401      	movs	r4, #1
  4016aa:	f8c1 9088 	str.w	r9, [r1, #136]	; 0x88
  4016ae:	f8d3 0188 	ldr.w	r0, [r3, #392]	; 0x188
  4016b2:	4094      	lsls	r4, r2
  4016b4:	4320      	orrs	r0, r4
  4016b6:	2e02      	cmp	r6, #2
  4016b8:	f8c3 0188 	str.w	r0, [r3, #392]	; 0x188
  4016bc:	f8c1 8108 	str.w	r8, [r1, #264]	; 0x108
  4016c0:	d023      	beq.n	40170a <__register_exitproc+0x92>
  4016c2:	3202      	adds	r2, #2
  4016c4:	f8c3 e004 	str.w	lr, [r3, #4]
  4016c8:	6828      	ldr	r0, [r5, #0]
  4016ca:	f843 7022 	str.w	r7, [r3, r2, lsl #2]
  4016ce:	f7ff ffd1 	bl	401674 <__retarget_lock_release_recursive>
  4016d2:	2000      	movs	r0, #0
  4016d4:	e8bd 83f8 	ldmia.w	sp!, {r3, r4, r5, r6, r7, r8, r9, pc}
  4016d8:	4b17      	ldr	r3, [pc, #92]	; (401738 <__register_exitproc+0xc0>)
  4016da:	b30b      	cbz	r3, 401720 <__register_exitproc+0xa8>
  4016dc:	f44f 70c8 	mov.w	r0, #400	; 0x190
  4016e0:	f3af 8000 	nop.w
  4016e4:	4603      	mov	r3, r0
  4016e6:	b1d8      	cbz	r0, 401720 <__register_exitproc+0xa8>
  4016e8:	f8d4 2148 	ldr.w	r2, [r4, #328]	; 0x148
  4016ec:	6002      	str	r2, [r0, #0]
  4016ee:	2100      	movs	r1, #0
  4016f0:	6041      	str	r1, [r0, #4]
  4016f2:	460a      	mov	r2, r1
  4016f4:	f8c4 0148 	str.w	r0, [r4, #328]	; 0x148
  4016f8:	f04f 0e01 	mov.w	lr, #1
  4016fc:	f8c0 1188 	str.w	r1, [r0, #392]	; 0x188
  401700:	f8c0 118c 	str.w	r1, [r0, #396]	; 0x18c
  401704:	2e00      	cmp	r6, #0
  401706:	d0dc      	beq.n	4016c2 <__register_exitproc+0x4a>
  401708:	e7cc      	b.n	4016a4 <__register_exitproc+0x2c>
  40170a:	f8d3 118c 	ldr.w	r1, [r3, #396]	; 0x18c
  40170e:	430c      	orrs	r4, r1
  401710:	f8c3 418c 	str.w	r4, [r3, #396]	; 0x18c
  401714:	e7d5      	b.n	4016c2 <__register_exitproc+0x4a>
  401716:	f504 73a6 	add.w	r3, r4, #332	; 0x14c
  40171a:	f8c4 3148 	str.w	r3, [r4, #328]	; 0x148
  40171e:	e7bb      	b.n	401698 <__register_exitproc+0x20>
  401720:	6828      	ldr	r0, [r5, #0]
  401722:	f7ff ffa7 	bl	401674 <__retarget_lock_release_recursive>
  401726:	f04f 30ff 	mov.w	r0, #4294967295
  40172a:	e8bd 83f8 	ldmia.w	sp!, {r3, r4, r5, r6, r7, r8, r9, pc}
  40172e:	bf00      	nop
  401730:	20400550 	.word	0x20400550
  401734:	0040173c 	.word	0x0040173c
  401738:	00000000 	.word	0x00000000

0040173c <_global_impure_ptr>:
  40173c:	20400128                                (.@ 

00401740 <_init>:
  401740:	b5f8      	push	{r3, r4, r5, r6, r7, lr}
  401742:	bf00      	nop
  401744:	bcf8      	pop	{r3, r4, r5, r6, r7}
  401746:	bc08      	pop	{r3}
  401748:	469e      	mov	lr, r3
  40174a:	4770      	bx	lr

0040174c <__init_array_start>:
  40174c:	0040161d 	.word	0x0040161d

00401750 <__frame_dummy_init_array_entry>:
  401750:	00400165                                e.@.

00401754 <_fini>:
  401754:	b5f8      	push	{r3, r4, r5, r6, r7, lr}
  401756:	bf00      	nop
  401758:	bcf8      	pop	{r3, r4, r5, r6, r7}
  40175a:	bc08      	pop	{r3}
  40175c:	469e      	mov	lr, r3
  40175e:	4770      	bx	lr

00401760 <__fini_array_start>:
  401760:	00400141 	.word	0x00400141

Disassembly of section .relocate:

20400000 <portable_delay_cycles>:
20400000:	f3bf 8f5f 	dmb	sy
20400004:	3801      	subs	r0, #1
20400006:	d1fb      	bne.n	20400000 <portable_delay_cycles>
20400008:	4770      	bx	lr

2040000a <g_interrupt_enabled>:
2040000a:	0001                                        ..

2040000c <SystemCoreClock>:
2040000c:	0900 003d                                   ..=.

20400010 <BI>:
20400010:	0019 0000                                   ....

20400014 <durationI>:
20400014:	000c 0000 0004 0000 0008 0000 0028 0000     ............(...
20400024:	000c 0000 0004 0000 0030 0000 000c 0000     ........0.......
20400034:	0004 0000 0008 0000 0028 0000 000c 0000     ........(.......
20400044:	0004 0000 0010 0000 0010 0000 0010 0000     ................
20400054:	000c 0000 0004 0000 0008 0000 0028 0000     ............(...
20400064:	000c 0000 0004 0000 0030 0000 000c 0000     ........0.......
20400074:	0001 0000 0004 0000 0010 0000 000c 0000     ................
20400084:	0004 0000 0010 0000 000c 0000 0004 0000     ................
20400094:	0010 0000 0020 0000                         .... ...

2040009c <notesI>:
2040009c:	014a 0000 015d 0000 0188 0000 020b 0000     J...]...........
204000ac:	0126 0000 014a 0000 015d 0000 0188 0000     &...J...].......
204000bc:	01b8 0000 01ee 0000 02ba 0000 01b8 0000     ................
204000cc:	01ee 0000 020b 0000 024b 0000 0293 0000     ........K.......
204000dc:	014a 0000 015d 0000 0188 0000 020b 0000     J...]...........
204000ec:	024b 0000 0293 0000 02ba 0000 0188 0000     K...............
204000fc:	0000 0000 0188 0000 0293 0000 024b 0000     ............K...
2040010c:	0188 0000 0293 0000 024b 0000 0188 0000     ........K.......
2040011c:	0293 0000 024b 0000 0000 0000               ....K.......

20400128 <impure_data>:
20400128:	0000 0000 0414 2040 047c 2040 04e4 2040     ......@ |.@ ..@ 
	...
204001d0:	0001 0000 0000 0000 330e abcd 1234 e66d     .........3..4.m.
204001e0:	deec 0005 000b 0000 0000 0000 0000 0000     ................
	...

20400550 <__atexit_recursive_mutex>:
20400550:	05e0 2040                                   ..@ 
